
termopress_30new_plt.elf:     file format elf32-littlearm

Sections:
Idx Name          Size      VMA       LMA       File off  Algn
  0 .isr_vector   0000010c  08000000  08000000  00010000  2**0
                  CONTENTS, ALLOC, LOAD, READONLY, DATA
  1 .text         000019f0  0800010c  0800010c  0001010c  2**2
                  CONTENTS, ALLOC, LOAD, READONLY, CODE
  2 .rodata       00000864  08001afc  08001afc  00011afc  2**2
                  CONTENTS, ALLOC, LOAD, READONLY, DATA
  3 .init_array   00000004  08002360  08002360  00012360  2**2
                  CONTENTS, ALLOC, LOAD, DATA
  4 .fini_array   00000004  08002364  08002364  00012364  2**2
                  CONTENTS, ALLOC, LOAD, DATA
  5 .data         00000018  20000000  08002368  00020000  2**2
                  CONTENTS, ALLOC, LOAD, DATA
  6 .bss          000006a8  20000018  08002380  00020018  2**2
                  ALLOC
  7 ._user_heap_stack 00000100  200006c0  08002380  000206c0  2**0
                  ALLOC
  8 .ARM.attributes 00000029  00000000  00000000  00020018  2**0
                  CONTENTS, READONLY
  9 .comment      0000007c  00000000  00000000  00020041  2**0
                  CONTENTS, READONLY
 10 .debug_frame  0000002c  00000000  00000000  000200c0  2**2
                  CONTENTS, READONLY, DEBUGGING
 11 .stabstr      0000003f  00000000  00000000  000200ec  2**0
                  CONTENTS, READONLY, DEBUGGING

Disassembly of section .text:

0800010c <__do_global_dtors_aux>:
 800010c:	b510      	push	{r4, lr}
 800010e:	4c05      	ldr	r4, [pc, #20]	; (8000124 <__do_global_dtors_aux+0x18>)
 8000110:	7823      	ldrb	r3, [r4, #0]
 8000112:	b933      	cbnz	r3, 8000122 <__do_global_dtors_aux+0x16>
 8000114:	4b04      	ldr	r3, [pc, #16]	; (8000128 <__do_global_dtors_aux+0x1c>)
 8000116:	b113      	cbz	r3, 800011e <__do_global_dtors_aux+0x12>
 8000118:	4804      	ldr	r0, [pc, #16]	; (800012c <__do_global_dtors_aux+0x20>)
 800011a:	f3af 8000 	nop.w
 800011e:	2301      	movs	r3, #1
 8000120:	7023      	strb	r3, [r4, #0]
 8000122:	bd10      	pop	{r4, pc}
 8000124:	20000018 	.word	0x20000018
 8000128:	00000000 	.word	0x00000000
 800012c:	08001ae4 	.word	0x08001ae4

08000130 <frame_dummy>:
 8000130:	b508      	push	{r3, lr}
 8000132:	4b03      	ldr	r3, [pc, #12]	; (8000140 <frame_dummy+0x10>)
 8000134:	b11b      	cbz	r3, 800013e <frame_dummy+0xe>
 8000136:	4903      	ldr	r1, [pc, #12]	; (8000144 <frame_dummy+0x14>)
 8000138:	4803      	ldr	r0, [pc, #12]	; (8000148 <frame_dummy+0x18>)
 800013a:	f3af 8000 	nop.w
 800013e:	bd08      	pop	{r3, pc}
 8000140:	00000000 	.word	0x00000000
 8000144:	2000001c 	.word	0x2000001c
 8000148:	08001ae4 	.word	0x08001ae4

0800014c <NVIC_PriorityGroupConfig>:
 800014c:	f040 60bf 	orr.w	r0, r0, #100139008	; 0x5f80000
 8000150:	4b02      	ldr	r3, [pc, #8]	; (800015c <NVIC_PriorityGroupConfig+0x10>)
 8000152:	f440 3000 	orr.w	r0, r0, #131072	; 0x20000
 8000156:	60d8      	str	r0, [r3, #12]
 8000158:	4770      	bx	lr
 800015a:	bf00      	nop
 800015c:	e000ed00 	.word	0xe000ed00

08000160 <NVIC_Init>:
 8000160:	b510      	push	{r4, lr}
 8000162:	78c2      	ldrb	r2, [r0, #3]
 8000164:	7803      	ldrb	r3, [r0, #0]
 8000166:	b1e2      	cbz	r2, 80001a2 <NVIC_Init+0x42>
 8000168:	4a12      	ldr	r2, [pc, #72]	; (80001b4 <NVIC_Init+0x54>)
 800016a:	68d1      	ldr	r1, [r2, #12]
 800016c:	7842      	ldrb	r2, [r0, #1]
 800016e:	43c9      	mvns	r1, r1
 8000170:	f3c1 2102 	ubfx	r1, r1, #8, #3
 8000174:	f1c1 0404 	rsb	r4, r1, #4
 8000178:	40a2      	lsls	r2, r4
 800017a:	240f      	movs	r4, #15
 800017c:	7880      	ldrb	r0, [r0, #2]
 800017e:	fa24 f101 	lsr.w	r1, r4, r1
 8000182:	4001      	ands	r1, r0
 8000184:	430a      	orrs	r2, r1
 8000186:	490c      	ldr	r1, [pc, #48]	; (80001b8 <NVIC_Init+0x58>)
 8000188:	0112      	lsls	r2, r2, #4
 800018a:	18c8      	adds	r0, r1, r3
 800018c:	b2d2      	uxtb	r2, r2
 800018e:	f880 2300 	strb.w	r2, [r0, #768]	; 0x300
 8000192:	f003 001f 	and.w	r0, r3, #31
 8000196:	095a      	lsrs	r2, r3, #5
 8000198:	2301      	movs	r3, #1
 800019a:	4083      	lsls	r3, r0
 800019c:	f841 3022 	str.w	r3, [r1, r2, lsl #2]
 80001a0:	bd10      	pop	{r4, pc}
 80001a2:	2101      	movs	r1, #1
 80001a4:	095a      	lsrs	r2, r3, #5
 80001a6:	f003 031f 	and.w	r3, r3, #31
 80001aa:	fa01 f303 	lsl.w	r3, r1, r3
 80001ae:	3220      	adds	r2, #32
 80001b0:	4901      	ldr	r1, [pc, #4]	; (80001b8 <NVIC_Init+0x58>)
 80001b2:	e7f3      	b.n	800019c <NVIC_Init+0x3c>
 80001b4:	e000ed00 	.word	0xe000ed00
 80001b8:	e000e100 	.word	0xe000e100

080001bc <SysTick_CLKSourceConfig>:
 80001bc:	4b04      	ldr	r3, [pc, #16]	; (80001d0 <SysTick_CLKSourceConfig+0x14>)
 80001be:	2804      	cmp	r0, #4
 80001c0:	681a      	ldr	r2, [r3, #0]
 80001c2:	bf0c      	ite	eq
 80001c4:	f042 0204 	orreq.w	r2, r2, #4
 80001c8:	f022 0204 	bicne.w	r2, r2, #4
 80001cc:	601a      	str	r2, [r3, #0]
 80001ce:	4770      	bx	lr
 80001d0:	e000e010 	.word	0xe000e010

080001d4 <IWDG_WriteAccessCmd>:
 80001d4:	4b01      	ldr	r3, [pc, #4]	; (80001dc <IWDG_WriteAccessCmd+0x8>)
 80001d6:	6018      	str	r0, [r3, #0]
 80001d8:	4770      	bx	lr
 80001da:	bf00      	nop
 80001dc:	40003000 	.word	0x40003000

080001e0 <IWDG_SetPrescaler>:
 80001e0:	4b01      	ldr	r3, [pc, #4]	; (80001e8 <IWDG_SetPrescaler+0x8>)
 80001e2:	6058      	str	r0, [r3, #4]
 80001e4:	4770      	bx	lr
 80001e6:	bf00      	nop
 80001e8:	40003000 	.word	0x40003000

080001ec <IWDG_SetReload>:
 80001ec:	4b01      	ldr	r3, [pc, #4]	; (80001f4 <IWDG_SetReload+0x8>)
 80001ee:	6098      	str	r0, [r3, #8]
 80001f0:	4770      	bx	lr
 80001f2:	bf00      	nop
 80001f4:	40003000 	.word	0x40003000

080001f8 <IWDG_ReloadCounter>:
 80001f8:	f64a 22aa 	movw	r2, #43690	; 0xaaaa
 80001fc:	4b01      	ldr	r3, [pc, #4]	; (8000204 <IWDG_ReloadCounter+0xc>)
 80001fe:	601a      	str	r2, [r3, #0]
 8000200:	4770      	bx	lr
 8000202:	bf00      	nop
 8000204:	40003000 	.word	0x40003000

08000208 <IWDG_Enable>:
 8000208:	f64c 42cc 	movw	r2, #52428	; 0xcccc
 800020c:	4b01      	ldr	r3, [pc, #4]	; (8000214 <IWDG_Enable+0xc>)
 800020e:	601a      	str	r2, [r3, #0]
 8000210:	4770      	bx	lr
 8000212:	bf00      	nop
 8000214:	40003000 	.word	0x40003000

08000218 <RCC_ADCCLKConfig>:
 8000218:	4a03      	ldr	r2, [pc, #12]	; (8000228 <RCC_ADCCLKConfig+0x10>)
 800021a:	6853      	ldr	r3, [r2, #4]
 800021c:	f423 4340 	bic.w	r3, r3, #49152	; 0xc000
 8000220:	4318      	orrs	r0, r3
 8000222:	6050      	str	r0, [r2, #4]
 8000224:	4770      	bx	lr
 8000226:	bf00      	nop
 8000228:	40021000 	.word	0x40021000

0800022c <RCC_GetClocksFreq>:
 800022c:	4a1c      	ldr	r2, [pc, #112]	; (80002a0 <RCC_GetClocksFreq+0x74>)
 800022e:	b510      	push	{r4, lr}
 8000230:	6853      	ldr	r3, [r2, #4]
 8000232:	f003 030c 	and.w	r3, r3, #12
 8000236:	2b04      	cmp	r3, #4
 8000238:	d001      	beq.n	800023e <RCC_GetClocksFreq+0x12>
 800023a:	2b08      	cmp	r3, #8
 800023c:	d01f      	beq.n	800027e <RCC_GetClocksFreq+0x52>
 800023e:	4b19      	ldr	r3, [pc, #100]	; (80002a4 <RCC_GetClocksFreq+0x78>)
 8000240:	6003      	str	r3, [r0, #0]
 8000242:	6853      	ldr	r3, [r2, #4]
 8000244:	4c18      	ldr	r4, [pc, #96]	; (80002a8 <RCC_GetClocksFreq+0x7c>)
 8000246:	f3c3 1303 	ubfx	r3, r3, #4, #4
 800024a:	5ce1      	ldrb	r1, [r4, r3]
 800024c:	6803      	ldr	r3, [r0, #0]
 800024e:	40cb      	lsrs	r3, r1
 8000250:	6043      	str	r3, [r0, #4]
 8000252:	6851      	ldr	r1, [r2, #4]
 8000254:	f3c1 2102 	ubfx	r1, r1, #8, #3
 8000258:	5c61      	ldrb	r1, [r4, r1]
 800025a:	fa23 f101 	lsr.w	r1, r3, r1
 800025e:	6081      	str	r1, [r0, #8]
 8000260:	6851      	ldr	r1, [r2, #4]
 8000262:	f3c1 21c2 	ubfx	r1, r1, #11, #3
 8000266:	5c61      	ldrb	r1, [r4, r1]
 8000268:	40cb      	lsrs	r3, r1
 800026a:	60c3      	str	r3, [r0, #12]
 800026c:	6852      	ldr	r2, [r2, #4]
 800026e:	490f      	ldr	r1, [pc, #60]	; (80002ac <RCC_GetClocksFreq+0x80>)
 8000270:	f3c2 3281 	ubfx	r2, r2, #14, #2
 8000274:	5c8a      	ldrb	r2, [r1, r2]
 8000276:	fbb3 f3f2 	udiv	r3, r3, r2
 800027a:	6103      	str	r3, [r0, #16]
 800027c:	bd10      	pop	{r4, pc}
 800027e:	6853      	ldr	r3, [r2, #4]
 8000280:	6851      	ldr	r1, [r2, #4]
 8000282:	f3c3 4383 	ubfx	r3, r3, #18, #4
 8000286:	03cc      	lsls	r4, r1, #15
 8000288:	f103 0302 	add.w	r3, r3, #2
 800028c:	d402      	bmi.n	8000294 <RCC_GetClocksFreq+0x68>
 800028e:	4908      	ldr	r1, [pc, #32]	; (80002b0 <RCC_GetClocksFreq+0x84>)
 8000290:	434b      	muls	r3, r1
 8000292:	e7d5      	b.n	8000240 <RCC_GetClocksFreq+0x14>
 8000294:	6851      	ldr	r1, [r2, #4]
 8000296:	0389      	lsls	r1, r1, #14
 8000298:	d4f9      	bmi.n	800028e <RCC_GetClocksFreq+0x62>
 800029a:	4902      	ldr	r1, [pc, #8]	; (80002a4 <RCC_GetClocksFreq+0x78>)
 800029c:	e7f8      	b.n	8000290 <RCC_GetClocksFreq+0x64>
 800029e:	bf00      	nop
 80002a0:	40021000 	.word	0x40021000
 80002a4:	007a1200 	.word	0x007a1200
 80002a8:	20000004 	.word	0x20000004
 80002ac:	20000000 	.word	0x20000000
 80002b0:	003d0900 	.word	0x003d0900

080002b4 <RCC_APB2PeriphClockCmd>:
 80002b4:	4b04      	ldr	r3, [pc, #16]	; (80002c8 <RCC_APB2PeriphClockCmd+0x14>)
 80002b6:	699a      	ldr	r2, [r3, #24]
 80002b8:	b111      	cbz	r1, 80002c0 <RCC_APB2PeriphClockCmd+0xc>
 80002ba:	4310      	orrs	r0, r2
 80002bc:	6198      	str	r0, [r3, #24]
 80002be:	4770      	bx	lr
 80002c0:	ea22 0000 	bic.w	r0, r2, r0
 80002c4:	e7fa      	b.n	80002bc <RCC_APB2PeriphClockCmd+0x8>
 80002c6:	bf00      	nop
 80002c8:	40021000 	.word	0x40021000

080002cc <USART_Init>:
 80002cc:	b530      	push	{r4, r5, lr}
 80002ce:	460d      	mov	r5, r1
 80002d0:	4604      	mov	r4, r0
 80002d2:	8a03      	ldrh	r3, [r0, #16]
 80002d4:	898a      	ldrh	r2, [r1, #12]
 80002d6:	b29b      	uxth	r3, r3
 80002d8:	88c9      	ldrh	r1, [r1, #6]
 80002da:	f423 5340 	bic.w	r3, r3, #12288	; 0x3000
 80002de:	430b      	orrs	r3, r1
 80002e0:	8203      	strh	r3, [r0, #16]
 80002e2:	8983      	ldrh	r3, [r0, #12]
 80002e4:	88a9      	ldrh	r1, [r5, #4]
 80002e6:	f423 53b0 	bic.w	r3, r3, #5632	; 0x1600
 80002ea:	f023 030c 	bic.w	r3, r3, #12
 80002ee:	041b      	lsls	r3, r3, #16
 80002f0:	0c1b      	lsrs	r3, r3, #16
 80002f2:	430b      	orrs	r3, r1
 80002f4:	8929      	ldrh	r1, [r5, #8]
 80002f6:	b087      	sub	sp, #28
 80002f8:	430b      	orrs	r3, r1
 80002fa:	8969      	ldrh	r1, [r5, #10]
 80002fc:	430b      	orrs	r3, r1
 80002fe:	b29b      	uxth	r3, r3
 8000300:	8183      	strh	r3, [r0, #12]
 8000302:	8a83      	ldrh	r3, [r0, #20]
 8000304:	b29b      	uxth	r3, r3
 8000306:	f423 7340 	bic.w	r3, r3, #768	; 0x300
 800030a:	4313      	orrs	r3, r2
 800030c:	8283      	strh	r3, [r0, #20]
 800030e:	a801      	add	r0, sp, #4
 8000310:	f7ff ff8c 	bl	800022c <RCC_GetClocksFreq>
 8000314:	4a17      	ldr	r2, [pc, #92]	; (8000374 <USART_Init+0xa8>)
 8000316:	9b03      	ldr	r3, [sp, #12]
 8000318:	9904      	ldr	r1, [sp, #16]
 800031a:	4294      	cmp	r4, r2
 800031c:	bf18      	it	ne
 800031e:	4619      	movne	r1, r3
 8000320:	2219      	movs	r2, #25
 8000322:	89a3      	ldrh	r3, [r4, #12]
 8000324:	434a      	muls	r2, r1
 8000326:	f413 4f00 	tst.w	r3, #32768	; 0x8000
 800032a:	682b      	ldr	r3, [r5, #0]
 800032c:	f04f 0564 	mov.w	r5, #100	; 0x64
 8000330:	bf14      	ite	ne
 8000332:	005b      	lslne	r3, r3, #1
 8000334:	009b      	lsleq	r3, r3, #2
 8000336:	fbb2 f1f3 	udiv	r1, r2, r3
 800033a:	fbb1 f3f5 	udiv	r3, r1, r5
 800033e:	89a2      	ldrh	r2, [r4, #12]
 8000340:	0118      	lsls	r0, r3, #4
 8000342:	0412      	lsls	r2, r2, #16
 8000344:	fb05 1313 	mls	r3, r5, r3, r1
 8000348:	d50b      	bpl.n	8000362 <USART_Init+0x96>
 800034a:	00da      	lsls	r2, r3, #3
 800034c:	3232      	adds	r2, #50	; 0x32
 800034e:	fbb2 f2f5 	udiv	r2, r2, r5
 8000352:	f002 0207 	and.w	r2, r2, #7
 8000356:	ea42 0300 	orr.w	r3, r2, r0
 800035a:	b29b      	uxth	r3, r3
 800035c:	8123      	strh	r3, [r4, #8]
 800035e:	b007      	add	sp, #28
 8000360:	bd30      	pop	{r4, r5, pc}
 8000362:	011b      	lsls	r3, r3, #4
 8000364:	3332      	adds	r3, #50	; 0x32
 8000366:	fbb3 f3f5 	udiv	r3, r3, r5
 800036a:	f003 030f 	and.w	r3, r3, #15
 800036e:	4303      	orrs	r3, r0
 8000370:	e7f3      	b.n	800035a <USART_Init+0x8e>
 8000372:	bf00      	nop
 8000374:	40013800 	.word	0x40013800

08000378 <USART_Cmd>:
 8000378:	8983      	ldrh	r3, [r0, #12]
 800037a:	b121      	cbz	r1, 8000386 <USART_Cmd+0xe>
 800037c:	b29b      	uxth	r3, r3
 800037e:	f443 5300 	orr.w	r3, r3, #8192	; 0x2000
 8000382:	8183      	strh	r3, [r0, #12]
 8000384:	4770      	bx	lr
 8000386:	f423 5300 	bic.w	r3, r3, #8192	; 0x2000
 800038a:	041b      	lsls	r3, r3, #16
 800038c:	0c1b      	lsrs	r3, r3, #16
 800038e:	e7f8      	b.n	8000382 <USART_Cmd+0xa>

08000390 <USART_ITConfig>:
 8000390:	f001 031f 	and.w	r3, r1, #31
 8000394:	b510      	push	{r4, lr}
 8000396:	f3c1 1442 	ubfx	r4, r1, #5, #3
 800039a:	2101      	movs	r1, #1
 800039c:	2c01      	cmp	r4, #1
 800039e:	fa01 f103 	lsl.w	r1, r1, r3
 80003a2:	d105      	bne.n	80003b0 <USART_ITConfig+0x20>
 80003a4:	300c      	adds	r0, #12
 80003a6:	6803      	ldr	r3, [r0, #0]
 80003a8:	b13a      	cbz	r2, 80003ba <USART_ITConfig+0x2a>
 80003aa:	4319      	orrs	r1, r3
 80003ac:	6001      	str	r1, [r0, #0]
 80003ae:	bd10      	pop	{r4, pc}
 80003b0:	2c02      	cmp	r4, #2
 80003b2:	bf0c      	ite	eq
 80003b4:	3010      	addeq	r0, #16
 80003b6:	3014      	addne	r0, #20
 80003b8:	e7f5      	b.n	80003a6 <USART_ITConfig+0x16>
 80003ba:	ea23 0101 	bic.w	r1, r3, r1
 80003be:	e7f5      	b.n	80003ac <USART_ITConfig+0x1c>

080003c0 <USART_GetITStatus>:
 80003c0:	2301      	movs	r3, #1
 80003c2:	f3c1 1242 	ubfx	r2, r1, #5, #3
 80003c6:	b510      	push	{r4, lr}
 80003c8:	2a01      	cmp	r2, #1
 80003ca:	f001 041f 	and.w	r4, r1, #31
 80003ce:	fa03 f304 	lsl.w	r3, r3, r4
 80003d2:	d10e      	bne.n	80003f2 <USART_GetITStatus+0x32>
 80003d4:	8982      	ldrh	r2, [r0, #12]
 80003d6:	b292      	uxth	r2, r2
 80003d8:	4013      	ands	r3, r2
 80003da:	8802      	ldrh	r2, [r0, #0]
 80003dc:	b292      	uxth	r2, r2
 80003de:	b16b      	cbz	r3, 80003fc <USART_GetITStatus+0x3c>
 80003e0:	2301      	movs	r3, #1
 80003e2:	0a09      	lsrs	r1, r1, #8
 80003e4:	fa03 f101 	lsl.w	r1, r3, r1
 80003e8:	420a      	tst	r2, r1
 80003ea:	bf14      	ite	ne
 80003ec:	4618      	movne	r0, r3
 80003ee:	2000      	moveq	r0, #0
 80003f0:	bd10      	pop	{r4, pc}
 80003f2:	2a02      	cmp	r2, #2
 80003f4:	bf0c      	ite	eq
 80003f6:	8a02      	ldrheq	r2, [r0, #16]
 80003f8:	8a82      	ldrhne	r2, [r0, #20]
 80003fa:	e7ec      	b.n	80003d6 <USART_GetITStatus+0x16>
 80003fc:	4618      	mov	r0, r3
 80003fe:	bd10      	pop	{r4, pc}

08000400 <SymbolToLCD>:
 8000400:	283b      	cmp	r0, #59	; 0x3b
 8000402:	d00e      	beq.n	8000422 <SymbolToLCD+0x22>
 8000404:	285b      	cmp	r0, #91	; 0x5b
 8000406:	d010      	beq.n	800042a <SymbolToLCD+0x2a>
 8000408:	287d      	cmp	r0, #125	; 0x7d
 800040a:	d00c      	beq.n	8000426 <SymbolToLCD+0x26>
 800040c:	2827      	cmp	r0, #39	; 0x27
 800040e:	d00c      	beq.n	800042a <SymbolToLCD+0x2a>
 8000410:	285e      	cmp	r0, #94	; 0x5e
 8000412:	d00c      	beq.n	800042e <SymbolToLCD+0x2e>
 8000414:	28bf      	cmp	r0, #191	; 0xbf
 8000416:	d90b      	bls.n	8000430 <SymbolToLCD+0x30>
 8000418:	4b06      	ldr	r3, [pc, #24]	; (8000434 <SymbolToLCD+0x34>)
 800041a:	4418      	add	r0, r3
 800041c:	f810 0cc0 	ldrb.w	r0, [r0, #-192]
 8000420:	4770      	bx	lr
 8000422:	2004      	movs	r0, #4
 8000424:	4770      	bx	lr
 8000426:	2001      	movs	r0, #1
 8000428:	4770      	bx	lr
 800042a:	2000      	movs	r0, #0
 800042c:	4770      	bx	lr
 800042e:	20d9      	movs	r0, #217	; 0xd9
 8000430:	4770      	bx	lr
 8000432:	bf00      	nop
 8000434:	08001afc 	.word	0x08001afc

08000438 <InitSamplesLookUpTable>:
 8000438:	2300      	movs	r3, #0
 800043a:	f240 3025 	movw	r0, #805	; 0x325
 800043e:	b510      	push	{r4, lr}
 8000440:	4906      	ldr	r1, [pc, #24]	; (800045c <InitSamplesLookUpTable+0x24>)
 8000442:	4c07      	ldr	r4, [pc, #28]	; (8000460 <InitSamplesLookUpTable+0x28>)
 8000444:	f834 2013 	ldrh.w	r2, [r4, r3, lsl #1]
 8000448:	0212      	lsls	r2, r2, #8
 800044a:	fb92 f2f0 	sdiv	r2, r2, r0
 800044e:	f821 2013 	strh.w	r2, [r1, r3, lsl #1]
 8000452:	3301      	adds	r3, #1
 8000454:	f5b3 7ffd 	cmp.w	r3, #506	; 0x1fa
 8000458:	d1f4      	bne.n	8000444 <InitSamplesLookUpTable+0xc>
 800045a:	bd10      	pop	{r4, pc}
 800045c:	20000040 	.word	0x20000040
 8000460:	08001b3c 	.word	0x08001b3c

08000464 <DegreeToSample>:
 8000464:	f5b0 7fe1 	cmp.w	r0, #450	; 0x1c2
 8000468:	bf28      	it	cs
 800046a:	f44f 70e1 	movcs.w	r0, #450	; 0x1c2
 800046e:	4b02      	ldr	r3, [pc, #8]	; (8000478 <DegreeToSample+0x14>)
 8000470:	f833 0010 	ldrh.w	r0, [r3, r0, lsl #1]
 8000474:	4770      	bx	lr
 8000476:	bf00      	nop
 8000478:	20000040 	.word	0x20000040

0800047c <SampleToDegree>:
 800047c:	4917      	ldr	r1, [pc, #92]	; (80004dc <SampleToDegree+0x60>)
 800047e:	b570      	push	{r4, r5, r6, lr}
 8000480:	f8b1 3384 	ldrh.w	r3, [r1, #900]	; 0x384
 8000484:	4283      	cmp	r3, r0
 8000486:	d326      	bcc.n	80004d6 <SampleToDegree+0x5a>
 8000488:	f44f 75e1 	mov.w	r5, #450	; 0x1c2
 800048c:	2600      	movs	r6, #0
 800048e:	1972      	adds	r2, r6, r5
 8000490:	1053      	asrs	r3, r2, #1
 8000492:	f831 2013 	ldrh.w	r2, [r1, r3, lsl #1]
 8000496:	b29c      	uxth	r4, r3
 8000498:	4290      	cmp	r0, r2
 800049a:	d20c      	bcs.n	80004b6 <SampleToDegree+0x3a>
 800049c:	3c01      	subs	r4, #1
 800049e:	b2a5      	uxth	r5, r4
 80004a0:	f831 4015 	ldrh.w	r4, [r1, r5, lsl #1]
 80004a4:	42a0      	cmp	r0, r4
 80004a6:	d913      	bls.n	80004d0 <SampleToDegree+0x54>
 80004a8:	4422      	add	r2, r4
 80004aa:	ebb0 0f62 	cmp.w	r0, r2, asr #1
 80004ae:	bf98      	it	ls
 80004b0:	462b      	movls	r3, r5
 80004b2:	4618      	mov	r0, r3
 80004b4:	bd70      	pop	{r4, r5, r6, pc}
 80004b6:	d9fc      	bls.n	80004b2 <SampleToDegree+0x36>
 80004b8:	3401      	adds	r4, #1
 80004ba:	b2a6      	uxth	r6, r4
 80004bc:	f831 4016 	ldrh.w	r4, [r1, r6, lsl #1]
 80004c0:	42a0      	cmp	r0, r4
 80004c2:	d205      	bcs.n	80004d0 <SampleToDegree+0x54>
 80004c4:	4422      	add	r2, r4
 80004c6:	ebb0 0f62 	cmp.w	r0, r2, asr #1
 80004ca:	bf88      	it	hi
 80004cc:	4633      	movhi	r3, r6
 80004ce:	e7f0      	b.n	80004b2 <SampleToDegree+0x36>
 80004d0:	42ae      	cmp	r6, r5
 80004d2:	d9dc      	bls.n	800048e <SampleToDegree+0x12>
 80004d4:	e7ed      	b.n	80004b2 <SampleToDegree+0x36>
 80004d6:	f44f 73e1 	mov.w	r3, #450	; 0x1c2
 80004da:	e7ea      	b.n	80004b2 <SampleToDegree+0x36>
 80004dc:	20000040 	.word	0x20000040

080004e0 <DeadBand>:
 80004e0:	b510      	push	{r4, lr}
 80004e2:	4602      	mov	r2, r0
 80004e4:	7800      	ldrb	r0, [r0, #0]
 80004e6:	b150      	cbz	r0, 80004fe <DeadBand+0x1e>
 80004e8:	2301      	movs	r3, #1
 80004ea:	4083      	lsls	r3, r0
 80004ec:	8850      	ldrh	r0, [r2, #2]
 80004ee:	3b01      	subs	r3, #1
 80004f0:	181c      	adds	r4, r3, r0
 80004f2:	42a1      	cmp	r1, r4
 80004f4:	d905      	bls.n	8000502 <DeadBand+0x22>
 80004f6:	b288      	uxth	r0, r1
 80004f8:	1ac3      	subs	r3, r0, r3
 80004fa:	8053      	strh	r3, [r2, #2]
 80004fc:	8090      	strh	r0, [r2, #4]
 80004fe:	4608      	mov	r0, r1
 8000500:	bd10      	pop	{r4, pc}
 8000502:	4281      	cmp	r1, r0
 8000504:	bf3d      	ittte	cc
 8000506:	b28b      	uxthcc	r3, r1
 8000508:	8053      	strhcc	r3, [r2, #2]
 800050a:	8093      	strhcc	r3, [r2, #4]
 800050c:	8891      	ldrhcs	r1, [r2, #4]
 800050e:	e7f6      	b.n	80004fe <DeadBand+0x1e>

08000510 <SendData_USART>:
 8000510:	b513      	push	{r0, r1, r4, lr}
 8000512:	9201      	str	r2, [sp, #4]
 8000514:	7903      	ldrb	r3, [r0, #4]
 8000516:	2201      	movs	r2, #1
 8000518:	f003 04ff 	and.w	r4, r3, #255	; 0xff
 800051c:	b95b      	cbnz	r3, 8000536 <SendData_USART+0x26>
 800051e:	7102      	strb	r2, [r0, #4]
 8000520:	9b01      	ldr	r3, [sp, #4]
 8000522:	60c1      	str	r1, [r0, #12]
 8000524:	6083      	str	r3, [r0, #8]
 8000526:	f240 7127 	movw	r1, #1831	; 0x727
 800052a:	6800      	ldr	r0, [r0, #0]
 800052c:	f7ff ff30 	bl	8000390 <USART_ITConfig>
 8000530:	4620      	mov	r0, r4
 8000532:	b002      	add	sp, #8
 8000534:	bd10      	pop	{r4, pc}
 8000536:	4610      	mov	r0, r2
 8000538:	e7fb      	b.n	8000532 <SendData_USART+0x22>

0800053a <SendData_IT>:
 800053a:	b538      	push	{r3, r4, r5, lr}
 800053c:	7903      	ldrb	r3, [r0, #4]
 800053e:	4605      	mov	r5, r0
 8000540:	2b01      	cmp	r3, #1
 8000542:	d111      	bne.n	8000568 <SendData_IT+0x2e>
 8000544:	68eb      	ldr	r3, [r5, #12]
 8000546:	6800      	ldr	r0, [r0, #0]
 8000548:	1c5a      	adds	r2, r3, #1
 800054a:	60ea      	str	r2, [r5, #12]
 800054c:	781b      	ldrb	r3, [r3, #0]
 800054e:	8083      	strh	r3, [r0, #4]
 8000550:	68ac      	ldr	r4, [r5, #8]
 8000552:	3c01      	subs	r4, #1
 8000554:	60ac      	str	r4, [r5, #8]
 8000556:	b92c      	cbnz	r4, 8000564 <SendData_IT+0x2a>
 8000558:	4622      	mov	r2, r4
 800055a:	f240 7127 	movw	r1, #1831	; 0x727
 800055e:	f7ff ff17 	bl	8000390 <USART_ITConfig>
 8000562:	712c      	strb	r4, [r5, #4]
 8000564:	2000      	movs	r0, #0
 8000566:	bd38      	pop	{r3, r4, r5, pc}
 8000568:	2001      	movs	r0, #1
 800056a:	bd38      	pop	{r3, r4, r5, pc}

0800056c <RCC_Configuration>:
 800056c:	b508      	push	{r3, lr}
 800056e:	2101      	movs	r1, #1
 8000570:	f240 200d 	movw	r0, #525	; 0x20d
 8000574:	f7ff fe9e 	bl	80002b4 <RCC_APB2PeriphClockCmd>
 8000578:	e8bd 4008 	ldmia.w	sp!, {r3, lr}
 800057c:	2101      	movs	r1, #1
 800057e:	f44f 4080 	mov.w	r0, #16384	; 0x4000
 8000582:	f7ff be97 	b.w	80002b4 <RCC_APB2PeriphClockCmd>
	...

08000588 <GPIO_Configuration>:
 8000588:	2383      	movs	r3, #131	; 0x83
 800058a:	2100      	movs	r1, #0
 800058c:	f04f 6080 	mov.w	r0, #67108864	; 0x4000000
 8000590:	4a09      	ldr	r2, [pc, #36]	; (80005b8 <GPIO_Configuration+0x30>)
 8000592:	60d3      	str	r3, [r2, #12]
 8000594:	4b09      	ldr	r3, [pc, #36]	; (80005bc <GPIO_Configuration+0x34>)
 8000596:	60d9      	str	r1, [r3, #12]
 8000598:	4909      	ldr	r1, [pc, #36]	; (80005c0 <GPIO_Configuration+0x38>)
 800059a:	6048      	str	r0, [r1, #4]
 800059c:	4909      	ldr	r1, [pc, #36]	; (80005c4 <GPIO_Configuration+0x3c>)
 800059e:	6011      	str	r1, [r2, #0]
 80005a0:	f101 2102 	add.w	r1, r1, #33554944	; 0x2000200
 80005a4:	f501 1108 	add.w	r1, r1, #2228224	; 0x220000
 80005a8:	3190      	adds	r1, #144	; 0x90
 80005aa:	6051      	str	r1, [r2, #4]
 80005ac:	4a06      	ldr	r2, [pc, #24]	; (80005c8 <GPIO_Configuration+0x40>)
 80005ae:	601a      	str	r2, [r3, #0]
 80005b0:	f04f 3222 	mov.w	r2, #572662306	; 0x22222222
 80005b4:	605a      	str	r2, [r3, #4]
 80005b6:	4770      	bx	lr
 80005b8:	40010800 	.word	0x40010800
 80005bc:	40010c00 	.word	0x40010c00
 80005c0:	40010000 	.word	0x40010000
 80005c4:	20002222 	.word	0x20002222
 80005c8:	44442222 	.word	0x44442222

080005cc <NVIC_Configuration>:
 80005cc:	b507      	push	{r0, r1, r2, lr}
 80005ce:	f44f 60c0 	mov.w	r0, #1536	; 0x600
 80005d2:	f7ff fdbb 	bl	800014c <NVIC_PriorityGroupConfig>
 80005d6:	2325      	movs	r3, #37	; 0x25
 80005d8:	f88d 3004 	strb.w	r3, [sp, #4]
 80005dc:	2300      	movs	r3, #0
 80005de:	f88d 3006 	strb.w	r3, [sp, #6]
 80005e2:	2301      	movs	r3, #1
 80005e4:	a801      	add	r0, sp, #4
 80005e6:	f88d 3007 	strb.w	r3, [sp, #7]
 80005ea:	f7ff fdb9 	bl	8000160 <NVIC_Init>
 80005ee:	2312      	movs	r3, #18
 80005f0:	a801      	add	r0, sp, #4
 80005f2:	f88d 3004 	strb.w	r3, [sp, #4]
 80005f6:	f7ff fdb3 	bl	8000160 <NVIC_Init>
 80005fa:	b003      	add	sp, #12
 80005fc:	f85d fb04 	ldr.w	pc, [sp], #4

08000600 <SysTick_Configuration>:
 8000600:	b508      	push	{r3, lr}
 8000602:	f06f 0004 	mvn.w	r0, #4
 8000606:	f7ff fdd9 	bl	80001bc <SysTick_CLKSourceConfig>
 800060a:	f44f 727a 	mov.w	r2, #1000	; 0x3e8
 800060e:	4b08      	ldr	r3, [pc, #32]	; (8000630 <SysTick_Configuration+0x30>)
 8000610:	21f0      	movs	r1, #240	; 0xf0
 8000612:	681b      	ldr	r3, [r3, #0]
 8000614:	fbb3 f3f2 	udiv	r3, r3, r2
 8000618:	4a06      	ldr	r2, [pc, #24]	; (8000634 <SysTick_Configuration+0x34>)
 800061a:	3b01      	subs	r3, #1
 800061c:	6053      	str	r3, [r2, #4]
 800061e:	4b06      	ldr	r3, [pc, #24]	; (8000638 <SysTick_Configuration+0x38>)
 8000620:	f883 1023 	strb.w	r1, [r3, #35]	; 0x23
 8000624:	2300      	movs	r3, #0
 8000626:	6093      	str	r3, [r2, #8]
 8000628:	2307      	movs	r3, #7
 800062a:	6013      	str	r3, [r2, #0]
 800062c:	bd08      	pop	{r3, pc}
 800062e:	bf00      	nop
 8000630:	20000014 	.word	0x20000014
 8000634:	e000e010 	.word	0xe000e010
 8000638:	e000ed00 	.word	0xe000ed00

0800063c <SetConversionSequence>:
 800063c:	b570      	push	{r4, r5, r6, lr}
 800063e:	240a      	movs	r4, #10
 8000640:	f1c2 0204 	rsb	r2, r2, #4
 8000644:	b2d2      	uxtb	r2, r2
 8000646:	eb02 0382 	add.w	r3, r2, r2, lsl #2
 800064a:	2a03      	cmp	r2, #3
 800064c:	d900      	bls.n	8000650 <SetConversionSequence+0x14>
 800064e:	bd70      	pop	{r4, r5, r6, pc}
 8000650:	fbb1 f5f4 	udiv	r5, r1, r4
 8000654:	fb04 1115 	mls	r1, r4, r5, r1
 8000658:	6b86      	ldr	r6, [r0, #56]	; 0x38
 800065a:	b289      	uxth	r1, r1
 800065c:	4099      	lsls	r1, r3
 800065e:	4331      	orrs	r1, r6
 8000660:	3201      	adds	r2, #1
 8000662:	6381      	str	r1, [r0, #56]	; 0x38
 8000664:	b2d2      	uxtb	r2, r2
 8000666:	b2a9      	uxth	r1, r5
 8000668:	3305      	adds	r3, #5
 800066a:	e7ee      	b.n	800064a <SetConversionSequence+0xe>

0800066c <ADC1_init>:
 800066c:	b510      	push	{r4, lr}
 800066e:	4c1b      	ldr	r4, [pc, #108]	; (80006dc <ADC1_init+0x70>)
 8000670:	68a3      	ldr	r3, [r4, #8]
 8000672:	f043 0301 	orr.w	r3, r3, #1
 8000676:	60a3      	str	r3, [r4, #8]
 8000678:	68a3      	ldr	r3, [r4, #8]
 800067a:	f043 0304 	orr.w	r3, r3, #4
 800067e:	60a3      	str	r3, [r4, #8]
 8000680:	68a3      	ldr	r3, [r4, #8]
 8000682:	075b      	lsls	r3, r3, #29
 8000684:	d4fc      	bmi.n	8000680 <ADC1_init+0x14>
 8000686:	f44f 1300 	mov.w	r3, #2097152	; 0x200000
 800068a:	63a3      	str	r3, [r4, #56]	; 0x38
 800068c:	6863      	ldr	r3, [r4, #4]
 800068e:	4813      	ldr	r0, [pc, #76]	; (80006dc <ADC1_init+0x70>)
 8000690:	f043 0380 	orr.w	r3, r3, #128	; 0x80
 8000694:	6063      	str	r3, [r4, #4]
 8000696:	68a3      	ldr	r3, [r4, #8]
 8000698:	2203      	movs	r2, #3
 800069a:	f443 4300 	orr.w	r3, r3, #32768	; 0x8000
 800069e:	60a3      	str	r3, [r4, #8]
 80006a0:	68a3      	ldr	r3, [r4, #8]
 80006a2:	f240 218e 	movw	r1, #654	; 0x28e
 80006a6:	f443 43e0 	orr.w	r3, r3, #28672	; 0x7000
 80006aa:	60a3      	str	r3, [r4, #8]
 80006ac:	6923      	ldr	r3, [r4, #16]
 80006ae:	f043 0307 	orr.w	r3, r3, #7
 80006b2:	6123      	str	r3, [r4, #16]
 80006b4:	6923      	ldr	r3, [r4, #16]
 80006b6:	f443 3360 	orr.w	r3, r3, #229376	; 0x38000
 80006ba:	6123      	str	r3, [r4, #16]
 80006bc:	f7ff ffbe 	bl	800063c <SetConversionSequence>
 80006c0:	6863      	ldr	r3, [r4, #4]
 80006c2:	f44f 4000 	mov.w	r0, #32768	; 0x8000
 80006c6:	f443 7380 	orr.w	r3, r3, #256	; 0x100
 80006ca:	6063      	str	r3, [r4, #4]
 80006cc:	68a3      	ldr	r3, [r4, #8]
 80006ce:	f043 0301 	orr.w	r3, r3, #1
 80006d2:	60a3      	str	r3, [r4, #8]
 80006d4:	e8bd 4010 	ldmia.w	sp!, {r4, lr}
 80006d8:	f7ff bd9e 	b.w	8000218 <RCC_ADCCLKConfig>
 80006dc:	40012400 	.word	0x40012400

080006e0 <USART1_Configuration>:
 80006e0:	b530      	push	{r4, r5, lr}
 80006e2:	4c0f      	ldr	r4, [pc, #60]	; (8000720 <USART1_Configuration+0x40>)
 80006e4:	b085      	sub	sp, #20
 80006e6:	4605      	mov	r5, r0
 80006e8:	2100      	movs	r1, #0
 80006ea:	4620      	mov	r0, r4
 80006ec:	f7ff fe44 	bl	8000378 <USART_Cmd>
 80006f0:	2300      	movs	r3, #0
 80006f2:	f8ad 3004 	strh.w	r3, [sp, #4]
 80006f6:	f8ad 3006 	strh.w	r3, [sp, #6]
 80006fa:	f8ad 3008 	strh.w	r3, [sp, #8]
 80006fe:	f8ad 300c 	strh.w	r3, [sp, #12]
 8000702:	230c      	movs	r3, #12
 8000704:	4669      	mov	r1, sp
 8000706:	4620      	mov	r0, r4
 8000708:	f8ad 300a 	strh.w	r3, [sp, #10]
 800070c:	9500      	str	r5, [sp, #0]
 800070e:	f7ff fddd 	bl	80002cc <USART_Init>
 8000712:	2101      	movs	r1, #1
 8000714:	4620      	mov	r0, r4
 8000716:	f7ff fe2f 	bl	8000378 <USART_Cmd>
 800071a:	b005      	add	sp, #20
 800071c:	bd30      	pop	{r4, r5, pc}
 800071e:	bf00      	nop
 8000720:	40013800 	.word	0x40013800

08000724 <IWGD_Configuration>:
 8000724:	b508      	push	{r3, lr}
 8000726:	f245 5055 	movw	r0, #21845	; 0x5555
 800072a:	f7ff fd53 	bl	80001d4 <IWDG_WriteAccessCmd>
 800072e:	2005      	movs	r0, #5
 8000730:	f7ff fd56 	bl	80001e0 <IWDG_SetPrescaler>
 8000734:	f44f 607f 	mov.w	r0, #4080	; 0xff0
 8000738:	f7ff fd58 	bl	80001ec <IWDG_SetReload>
 800073c:	f7ff fd5c 	bl	80001f8 <IWDG_ReloadCounter>
 8000740:	e8bd 4008 	ldmia.w	sp!, {r3, lr}
 8000744:	f7ff bd60 	b.w	8000208 <IWDG_Enable>

08000748 <InitAllKeys>:
 8000748:	234b      	movs	r3, #75	; 0x4b
 800074a:	e92d 41f0 	stmdb	sp!, {r4, r5, r6, r7, r8, lr}
 800074e:	b088      	sub	sp, #32
 8000750:	f8ad 3018 	strh.w	r3, [sp, #24]
 8000754:	f44f 737a 	mov.w	r3, #1000	; 0x3e8
 8000758:	2400      	movs	r4, #0
 800075a:	f8ad 301a 	strh.w	r3, [sp, #26]
 800075e:	f04f 0504 	mov.w	r5, #4
 8000762:	23c8      	movs	r3, #200	; 0xc8
 8000764:	f04f 0810 	mov.w	r8, #16
 8000768:	4e14      	ldr	r6, [pc, #80]	; (80007bc <InitAllKeys+0x74>)
 800076a:	4f15      	ldr	r7, [pc, #84]	; (80007c0 <InitAllKeys+0x78>)
 800076c:	f8ad 301e 	strh.w	r3, [sp, #30]
 8000770:	f8ad 401c 	strh.w	r4, [sp, #28]
 8000774:	f88d 4016 	strb.w	r4, [sp, #22]
 8000778:	f364 1504 	bfi	r5, r4, #4, #1
 800077c:	2024      	movs	r0, #36	; 0x24
 800077e:	b2e3      	uxtb	r3, r4
 8000780:	f88d 3014 	strb.w	r3, [sp, #20]
 8000784:	3304      	adds	r3, #4
 8000786:	f88d 3015 	strb.w	r3, [sp, #21]
 800078a:	9b05      	ldr	r3, [sp, #20]
 800078c:	fa08 f204 	lsl.w	r2, r8, r4
 8000790:	f8ad 3004 	strh.w	r3, [sp, #4]
 8000794:	0c1b      	lsrs	r3, r3, #16
 8000796:	f88d 3006 	strb.w	r3, [sp, #6]
 800079a:	9b07      	ldr	r3, [sp, #28]
 800079c:	fb00 6004 	mla	r0, r0, r4, r6
 80007a0:	9300      	str	r3, [sp, #0]
 80007a2:	f88d 5008 	strb.w	r5, [sp, #8]
 80007a6:	9b06      	ldr	r3, [sp, #24]
 80007a8:	b292      	uxth	r2, r2
 80007aa:	4639      	mov	r1, r7
 80007ac:	3401      	adds	r4, #1
 80007ae:	f000 f9d5 	bl	8000b5c <InitKey>
 80007b2:	2c04      	cmp	r4, #4
 80007b4:	d1e2      	bne.n	800077c <InitAllKeys+0x34>
 80007b6:	b008      	add	sp, #32
 80007b8:	e8bd 81f0 	ldmia.w	sp!, {r4, r5, r6, r7, r8, pc}
 80007bc:	200005b0 	.word	0x200005b0
 80007c0:	40010c00 	.word	0x40010c00

080007c4 <Init>:
 80007c4:	b508      	push	{r3, lr}
 80007c6:	f7ff fed1 	bl	800056c <RCC_Configuration>
 80007ca:	f7ff fedd 	bl	8000588 <GPIO_Configuration>
 80007ce:	f7ff ff17 	bl	8000600 <SysTick_Configuration>
 80007d2:	f7ff ff4b 	bl	800066c <ADC1_init>
 80007d6:	f44f 30e1 	mov.w	r0, #115200	; 0x1c200
 80007da:	f7ff ff81 	bl	80006e0 <USART1_Configuration>
 80007de:	f7ff fef5 	bl	80005cc <NVIC_Configuration>
 80007e2:	f7ff ff9f 	bl	8000724 <IWGD_Configuration>
 80007e6:	e8bd 4008 	ldmia.w	sp!, {r3, lr}
 80007ea:	f7ff bfad 	b.w	8000748 <InitAllKeys>
	...

080007f0 <ShowUsersService>:
 80007f0:	2300      	movs	r3, #0
 80007f2:	b570      	push	{r4, r5, r6, lr}
 80007f4:	4d0b      	ldr	r5, [pc, #44]	; (8000824 <ShowUsersService+0x34>)
 80007f6:	4c0c      	ldr	r4, [pc, #48]	; (8000828 <ShowUsersService+0x38>)
 80007f8:	782a      	ldrb	r2, [r5, #0]
 80007fa:	4619      	mov	r1, r3
 80007fc:	3210      	adds	r2, #16
 80007fe:	f854 2022 	ldr.w	r2, [r4, r2, lsl #2]
 8000802:	4618      	mov	r0, r3
 8000804:	f000 fcdc 	bl	80011c0 <PutStr_LCD>
 8000808:	4b08      	ldr	r3, [pc, #32]	; (800082c <ShowUsersService+0x3c>)
 800080a:	782a      	ldrb	r2, [r5, #0]
 800080c:	781b      	ldrb	r3, [r3, #0]
 800080e:	2101      	movs	r1, #1
 8000810:	eb02 0243 	add.w	r2, r2, r3, lsl #1
 8000814:	2300      	movs	r3, #0
 8000816:	f854 2022 	ldr.w	r2, [r4, r2, lsl #2]
 800081a:	4618      	mov	r0, r3
 800081c:	e8bd 4070 	ldmia.w	sp!, {r4, r5, r6, lr}
 8000820:	f000 bcce 	b.w	80011c0 <PutStr_LCD>
 8000824:	20000642 	.word	0x20000642
 8000828:	08001f88 	.word	0x08001f88
 800082c:	2000064a 	.word	0x2000064a

08000830 <ShowTitle>:
 8000830:	2300      	movs	r3, #0
 8000832:	b510      	push	{r4, lr}
 8000834:	4c17      	ldr	r4, [pc, #92]	; (8000894 <ShowTitle+0x64>)
 8000836:	4a18      	ldr	r2, [pc, #96]	; (8000898 <ShowTitle+0x68>)
 8000838:	7821      	ldrb	r1, [r4, #0]
 800083a:	4618      	mov	r0, r3
 800083c:	f852 2021 	ldr.w	r2, [r2, r1, lsl #2]
 8000840:	4619      	mov	r1, r3
 8000842:	f000 fcbd 	bl	80011c0 <PutStr_LCD>
 8000846:	2120      	movs	r1, #32
 8000848:	2000      	movs	r0, #0
 800084a:	f000 fc43 	bl	80010d4 <PutChr_LCD>
 800084e:	2300      	movs	r3, #0
 8000850:	4a12      	ldr	r2, [pc, #72]	; (800089c <ShowTitle+0x6c>)
 8000852:	4619      	mov	r1, r3
 8000854:	20ff      	movs	r0, #255	; 0xff
 8000856:	f000 fcb3 	bl	80011c0 <PutStr_LCD>
 800085a:	2120      	movs	r1, #32
 800085c:	2000      	movs	r0, #0
 800085e:	f000 fc39 	bl	80010d4 <PutChr_LCD>
 8000862:	4b0f      	ldr	r3, [pc, #60]	; (80008a0 <ShowTitle+0x70>)
 8000864:	7822      	ldrb	r2, [r4, #0]
 8000866:	781b      	ldrb	r3, [r3, #0]
 8000868:	490e      	ldr	r1, [pc, #56]	; (80008a4 <ShowTitle+0x74>)
 800086a:	eb02 0243 	add.w	r2, r2, r3, lsl #1
 800086e:	2300      	movs	r3, #0
 8000870:	f851 2022 	ldr.w	r2, [r1, r2, lsl #2]
 8000874:	20ff      	movs	r0, #255	; 0xff
 8000876:	4619      	mov	r1, r3
 8000878:	f000 fca2 	bl	80011c0 <PutStr_LCD>
 800087c:	7821      	ldrb	r1, [r4, #0]
 800087e:	4a0a      	ldr	r2, [pc, #40]	; (80008a8 <ShowTitle+0x78>)
 8000880:	2300      	movs	r3, #0
 8000882:	e8bd 4010 	ldmia.w	sp!, {r4, lr}
 8000886:	f852 2021 	ldr.w	r2, [r2, r1, lsl #2]
 800088a:	2004      	movs	r0, #4
 800088c:	2101      	movs	r1, #1
 800088e:	f000 bc97 	b.w	80011c0 <PutStr_LCD>
 8000892:	bf00      	nop
 8000894:	20000642 	.word	0x20000642
 8000898:	08001f68 	.word	0x08001f68
 800089c:	08001fec 	.word	0x08001fec
 80008a0:	20000644 	.word	0x20000644
 80008a4:	08001f70 	.word	0x08001f70
 80008a8:	08001f38 	.word	0x08001f38

080008ac <ShowEntry>:
 80008ac:	b573      	push	{r0, r1, r4, r5, r6, lr}
 80008ae:	4b30      	ldr	r3, [pc, #192]	; (8000970 <ShowEntry+0xc4>)
 80008b0:	4a30      	ldr	r2, [pc, #192]	; (8000974 <ShowEntry+0xc8>)
 80008b2:	7819      	ldrb	r1, [r3, #0]
 80008b4:	2300      	movs	r3, #0
 80008b6:	f852 2021 	ldr.w	r2, [r2, r1, lsl #2]
 80008ba:	4618      	mov	r0, r3
 80008bc:	4619      	mov	r1, r3
 80008be:	f000 fc7f 	bl	80011c0 <PutStr_LCD>
 80008c2:	2300      	movs	r3, #0
 80008c4:	4e2c      	ldr	r6, [pc, #176]	; (8000978 <ShowEntry+0xcc>)
 80008c6:	4618      	mov	r0, r3
 80008c8:	4a2c      	ldr	r2, [pc, #176]	; (800097c <ShowEntry+0xd0>)
 80008ca:	2101      	movs	r1, #1
 80008cc:	f000 fc78 	bl	80011c0 <PutStr_LCD>
 80008d0:	6eb3      	ldr	r3, [r6, #104]	; 0x68
 80008d2:	2b13      	cmp	r3, #19
 80008d4:	dd44      	ble.n	8000960 <ShowEntry+0xb4>
 80008d6:	250a      	movs	r5, #10
 80008d8:	2400      	movs	r4, #0
 80008da:	2201      	movs	r2, #1
 80008dc:	fb93 f3f5 	sdiv	r3, r3, r5
 80008e0:	4611      	mov	r1, r2
 80008e2:	b29b      	uxth	r3, r3
 80008e4:	20ff      	movs	r0, #255	; 0xff
 80008e6:	9401      	str	r4, [sp, #4]
 80008e8:	9400      	str	r4, [sp, #0]
 80008ea:	f000 fc8d 	bl	8001208 <PutDgt_LCD>
 80008ee:	212e      	movs	r1, #46	; 0x2e
 80008f0:	4620      	mov	r0, r4
 80008f2:	f000 fbef 	bl	80010d4 <PutChr_LCD>
 80008f6:	6eb2      	ldr	r2, [r6, #104]	; 0x68
 80008f8:	9401      	str	r4, [sp, #4]
 80008fa:	fb92 f3f5 	sdiv	r3, r2, r5
 80008fe:	fb05 2313 	mls	r3, r5, r3, r2
 8000902:	2201      	movs	r2, #1
 8000904:	9400      	str	r4, [sp, #0]
 8000906:	b29b      	uxth	r3, r3
 8000908:	4611      	mov	r1, r2
 800090a:	20ff      	movs	r0, #255	; 0xff
 800090c:	f000 fc7c 	bl	8001208 <PutDgt_LCD>
 8000910:	2120      	movs	r1, #32
 8000912:	2000      	movs	r0, #0
 8000914:	f000 fbde 	bl	80010d4 <PutChr_LCD>
 8000918:	2104      	movs	r1, #4
 800091a:	2000      	movs	r0, #0
 800091c:	f000 fbda 	bl	80010d4 <PutChr_LCD>
 8000920:	2120      	movs	r1, #32
 8000922:	2000      	movs	r0, #0
 8000924:	f000 fbd6 	bl	80010d4 <PutChr_LCD>
 8000928:	2105      	movs	r1, #5
 800092a:	2000      	movs	r0, #0
 800092c:	f000 fbd2 	bl	80010d4 <PutChr_LCD>
 8000930:	2120      	movs	r1, #32
 8000932:	2000      	movs	r0, #0
 8000934:	f000 fbce 	bl	80010d4 <PutChr_LCD>
 8000938:	2300      	movs	r3, #0
 800093a:	4a11      	ldr	r2, [pc, #68]	; (8000980 <ShowEntry+0xd4>)
 800093c:	2101      	movs	r1, #1
 800093e:	20ff      	movs	r0, #255	; 0xff
 8000940:	f000 fc3e 	bl	80011c0 <PutStr_LCD>
 8000944:	2100      	movs	r1, #0
 8000946:	2220      	movs	r2, #32
 8000948:	4b0e      	ldr	r3, [pc, #56]	; (8000984 <ShowEntry+0xd8>)
 800094a:	20ff      	movs	r0, #255	; 0xff
 800094c:	f8b3 3068 	ldrh.w	r3, [r3, #104]	; 0x68
 8000950:	e88d 0006 	stmia.w	sp, {r1, r2}
 8000954:	2203      	movs	r2, #3
 8000956:	2101      	movs	r1, #1
 8000958:	f000 fc56 	bl	8001208 <PutDgt_LCD>
 800095c:	b002      	add	sp, #8
 800095e:	bd70      	pop	{r4, r5, r6, pc}
 8000960:	2300      	movs	r3, #0
 8000962:	4a09      	ldr	r2, [pc, #36]	; (8000988 <ShowEntry+0xdc>)
 8000964:	2101      	movs	r1, #1
 8000966:	20ff      	movs	r0, #255	; 0xff
 8000968:	f000 fc2a 	bl	80011c0 <PutStr_LCD>
 800096c:	e7d0      	b.n	8000910 <ShowEntry+0x64>
 800096e:	bf00      	nop
 8000970:	20000642 	.word	0x20000642
 8000974:	08001f30 	.word	0x08001f30
 8000978:	200004a4 	.word	0x200004a4
 800097c:	080020b9 	.word	0x080020b9
 8000980:	08002179 	.word	0x08002179
 8000984:	20000434 	.word	0x20000434
 8000988:	08001fd0 	.word	0x08001fd0

0800098c <ShowPrograms>:
 800098c:	e92d 4ff7 	stmdb	sp!, {r0, r1, r2, r4, r5, r6, r7, r8, r9, sl, fp, lr}
 8000990:	2500      	movs	r5, #0
 8000992:	4c68      	ldr	r4, [pc, #416]	; (8000b34 <ShowPrograms+0x1a8>)
 8000994:	f04f 0a0a 	mov.w	sl, #10
 8000998:	7822      	ldrb	r2, [r4, #0]
 800099a:	4e67      	ldr	r6, [pc, #412]	; (8000b38 <ShowPrograms+0x1ac>)
 800099c:	42aa      	cmp	r2, r5
 800099e:	bf0c      	ite	eq
 80009a0:	2280      	moveq	r2, #128	; 0x80
 80009a2:	462a      	movne	r2, r5
 80009a4:	7833      	ldrb	r3, [r6, #0]
 80009a6:	e88d 0024 	stmia.w	sp, {r2, r5}
 80009aa:	3301      	adds	r3, #1
 80009ac:	2202      	movs	r2, #2
 80009ae:	4629      	mov	r1, r5
 80009b0:	4628      	mov	r0, r5
 80009b2:	f000 fc29 	bl	8001208 <PutDgt_LCD>
 80009b6:	4f61      	ldr	r7, [pc, #388]	; (8000b3c <ShowPrograms+0x1b0>)
 80009b8:	7833      	ldrb	r3, [r6, #0]
 80009ba:	4961      	ldr	r1, [pc, #388]	; (8000b40 <ShowPrograms+0x1b4>)
 80009bc:	fb0a 7303 	mla	r3, sl, r3, r7
 80009c0:	7a1a      	ldrb	r2, [r3, #8]
 80009c2:	4688      	mov	r8, r1
 80009c4:	f002 0303 	and.w	r3, r2, #3
 80009c8:	780a      	ldrb	r2, [r1, #0]
 80009ca:	495e      	ldr	r1, [pc, #376]	; (8000b44 <ShowPrograms+0x1b8>)
 80009cc:	eb02 0243 	add.w	r2, r2, r3, lsl #1
 80009d0:	7823      	ldrb	r3, [r4, #0]
 80009d2:	f851 2022 	ldr.w	r2, [r1, r2, lsl #2]
 80009d6:	2b01      	cmp	r3, #1
 80009d8:	bf0c      	ite	eq
 80009da:	2380      	moveq	r3, #128	; 0x80
 80009dc:	462b      	movne	r3, r5
 80009de:	4629      	mov	r1, r5
 80009e0:	2002      	movs	r0, #2
 80009e2:	f000 fbed 	bl	80011c0 <PutStr_LCD>
 80009e6:	462b      	mov	r3, r5
 80009e8:	4a57      	ldr	r2, [pc, #348]	; (8000b48 <ShowPrograms+0x1bc>)
 80009ea:	4629      	mov	r1, r5
 80009ec:	2005      	movs	r0, #5
 80009ee:	f000 fbe7 	bl	80011c0 <PutStr_LCD>
 80009f2:	7822      	ldrb	r2, [r4, #0]
 80009f4:	f04f 0b20 	mov.w	fp, #32
 80009f8:	2a02      	cmp	r2, #2
 80009fa:	bf0c      	ite	eq
 80009fc:	2280      	moveq	r2, #128	; 0x80
 80009fe:	462a      	movne	r2, r5
 8000a00:	7833      	ldrb	r3, [r6, #0]
 8000a02:	4629      	mov	r1, r5
 8000a04:	fb0a 7303 	mla	r3, sl, r3, r7
 8000a08:	2007      	movs	r0, #7
 8000a0a:	885b      	ldrh	r3, [r3, #2]
 8000a0c:	e88d 0804 	stmia.w	sp, {r2, fp}
 8000a10:	2203      	movs	r2, #3
 8000a12:	f000 fbf9 	bl	8001208 <PutDgt_LCD>
 8000a16:	f8df 9140 	ldr.w	r9, [pc, #320]	; 8000b58 <ShowPrograms+0x1cc>
 8000a1a:	f898 2000 	ldrb.w	r2, [r8]
 8000a1e:	462b      	mov	r3, r5
 8000a20:	f859 2022 	ldr.w	r2, [r9, r2, lsl #2]
 8000a24:	4629      	mov	r1, r5
 8000a26:	200b      	movs	r0, #11
 8000a28:	f000 fbca 	bl	80011c0 <PutStr_LCD>
 8000a2c:	7822      	ldrb	r2, [r4, #0]
 8000a2e:	7833      	ldrb	r3, [r6, #0]
 8000a30:	2a03      	cmp	r2, #3
 8000a32:	bf0c      	ite	eq
 8000a34:	2280      	moveq	r2, #128	; 0x80
 8000a36:	462a      	movne	r2, r5
 8000a38:	fb0a 7303 	mla	r3, sl, r3, r7
 8000a3c:	4629      	mov	r1, r5
 8000a3e:	889b      	ldrh	r3, [r3, #4]
 8000a40:	200e      	movs	r0, #14
 8000a42:	e88d 0804 	stmia.w	sp, {r2, fp}
 8000a46:	2202      	movs	r2, #2
 8000a48:	f000 fbde 	bl	8001208 <PutDgt_LCD>
 8000a4c:	21c0      	movs	r1, #192	; 0xc0
 8000a4e:	2001      	movs	r0, #1
 8000a50:	f000 fb40 	bl	80010d4 <PutChr_LCD>
 8000a54:	2128      	movs	r1, #40	; 0x28
 8000a56:	4628      	mov	r0, r5
 8000a58:	f000 fb3c 	bl	80010d4 <PutChr_LCD>
 8000a5c:	7833      	ldrb	r3, [r6, #0]
 8000a5e:	fb0a 7a03 	mla	sl, sl, r3, r7
 8000a62:	f89a 3008 	ldrb.w	r3, [sl, #8]
 8000a66:	f013 0f20 	tst.w	r3, #32
 8000a6a:	7823      	ldrb	r3, [r4, #0]
 8000a6c:	d05c      	beq.n	8000b28 <ShowPrograms+0x19c>
 8000a6e:	2b04      	cmp	r3, #4
 8000a70:	bf0c      	ite	eq
 8000a72:	2380      	moveq	r3, #128	; 0x80
 8000a74:	462b      	movne	r3, r5
 8000a76:	4a35      	ldr	r2, [pc, #212]	; (8000b4c <ShowPrograms+0x1c0>)
 8000a78:	2101      	movs	r1, #1
 8000a7a:	4608      	mov	r0, r1
 8000a7c:	f000 fba0 	bl	80011c0 <PutStr_LCD>
 8000a80:	2129      	movs	r1, #41	; 0x29
 8000a82:	2000      	movs	r0, #0
 8000a84:	f000 fb26 	bl	80010d4 <PutChr_LCD>
 8000a88:	250a      	movs	r5, #10
 8000a8a:	2300      	movs	r3, #0
 8000a8c:	4a30      	ldr	r2, [pc, #192]	; (8000b50 <ShowPrograms+0x1c4>)
 8000a8e:	2101      	movs	r1, #1
 8000a90:	2005      	movs	r0, #5
 8000a92:	f000 fb95 	bl	80011c0 <PutStr_LCD>
 8000a96:	7822      	ldrb	r2, [r4, #0]
 8000a98:	f04f 0a30 	mov.w	sl, #48	; 0x30
 8000a9c:	2a05      	cmp	r2, #5
 8000a9e:	bf0c      	ite	eq
 8000aa0:	2280      	moveq	r2, #128	; 0x80
 8000aa2:	2200      	movne	r2, #0
 8000aa4:	7833      	ldrb	r3, [r6, #0]
 8000aa6:	2007      	movs	r0, #7
 8000aa8:	436b      	muls	r3, r5
 8000aaa:	5afb      	ldrh	r3, [r7, r3]
 8000aac:	e88d 0404 	stmia.w	sp, {r2, sl}
 8000ab0:	2201      	movs	r2, #1
 8000ab2:	fbb3 f3f5 	udiv	r3, r3, r5
 8000ab6:	4611      	mov	r1, r2
 8000ab8:	f000 fba6 	bl	8001208 <PutDgt_LCD>
 8000abc:	212e      	movs	r1, #46	; 0x2e
 8000abe:	2000      	movs	r0, #0
 8000ac0:	f000 fb08 	bl	80010d4 <PutChr_LCD>
 8000ac4:	7833      	ldrb	r3, [r6, #0]
 8000ac6:	2009      	movs	r0, #9
 8000ac8:	436b      	muls	r3, r5
 8000aca:	5afa      	ldrh	r2, [r7, r3]
 8000acc:	fbb2 f3f5 	udiv	r3, r2, r5
 8000ad0:	fb05 2313 	mls	r3, r5, r3, r2
 8000ad4:	7822      	ldrb	r2, [r4, #0]
 8000ad6:	b29b      	uxth	r3, r3
 8000ad8:	2a05      	cmp	r2, #5
 8000ada:	bf0c      	ite	eq
 8000adc:	2280      	moveq	r2, #128	; 0x80
 8000ade:	2200      	movne	r2, #0
 8000ae0:	e88d 0404 	stmia.w	sp, {r2, sl}
 8000ae4:	2201      	movs	r2, #1
 8000ae6:	4611      	mov	r1, r2
 8000ae8:	f000 fb8e 	bl	8001208 <PutDgt_LCD>
 8000aec:	f898 2000 	ldrb.w	r2, [r8]
 8000af0:	2300      	movs	r3, #0
 8000af2:	3202      	adds	r2, #2
 8000af4:	f859 2022 	ldr.w	r2, [r9, r2, lsl #2]
 8000af8:	2101      	movs	r1, #1
 8000afa:	200b      	movs	r0, #11
 8000afc:	f000 fb60 	bl	80011c0 <PutStr_LCD>
 8000b00:	7822      	ldrb	r2, [r4, #0]
 8000b02:	2120      	movs	r1, #32
 8000b04:	2a06      	cmp	r2, #6
 8000b06:	bf0c      	ite	eq
 8000b08:	2280      	moveq	r2, #128	; 0x80
 8000b0a:	2200      	movne	r2, #0
 8000b0c:	7833      	ldrb	r3, [r6, #0]
 8000b0e:	200e      	movs	r0, #14
 8000b10:	fb05 7703 	mla	r7, r5, r3, r7
 8000b14:	88fb      	ldrh	r3, [r7, #6]
 8000b16:	9101      	str	r1, [sp, #4]
 8000b18:	9200      	str	r2, [sp, #0]
 8000b1a:	2101      	movs	r1, #1
 8000b1c:	2202      	movs	r2, #2
 8000b1e:	f000 fb73 	bl	8001208 <PutDgt_LCD>
 8000b22:	b003      	add	sp, #12
 8000b24:	e8bd 8ff0 	ldmia.w	sp!, {r4, r5, r6, r7, r8, r9, sl, fp, pc}
 8000b28:	2b04      	cmp	r3, #4
 8000b2a:	bf0c      	ite	eq
 8000b2c:	2380      	moveq	r3, #128	; 0x80
 8000b2e:	2300      	movne	r3, #0
 8000b30:	4a08      	ldr	r2, [pc, #32]	; (8000b54 <ShowPrograms+0x1c8>)
 8000b32:	e7a1      	b.n	8000a78 <ShowPrograms+0xec>
 8000b34:	20000648 	.word	0x20000648
 8000b38:	20000647 	.word	0x20000647
 8000b3c:	2000064c 	.word	0x2000064c
 8000b40:	20000642 	.word	0x20000642
 8000b44:	08001f40 	.word	0x08001f40
 8000b48:	08002179 	.word	0x08002179
 8000b4c:	08001fe0 	.word	0x08001fe0
 8000b50:	080020b9 	.word	0x080020b9
 8000b54:	08001fd2 	.word	0x08001fd2
 8000b58:	08001f58 	.word	0x08001f58

08000b5c <InitKey>:
 8000b5c:	b082      	sub	sp, #8
 8000b5e:	b530      	push	{r4, r5, lr}
 8000b60:	4604      	mov	r4, r0
 8000b62:	2000      	movs	r0, #0
 8000b64:	9304      	str	r3, [sp, #16]
 8000b66:	80a2      	strh	r2, [r4, #4]
 8000b68:	aa04      	add	r2, sp, #16
 8000b6a:	8220      	strh	r0, [r4, #16]
 8000b6c:	74a0      	strb	r0, [r4, #18]
 8000b6e:	60a0      	str	r0, [r4, #8]
 8000b70:	6021      	str	r1, [r4, #0]
 8000b72:	f104 0318 	add.w	r3, r4, #24
 8000b76:	e892 0003 	ldmia.w	r2, {r0, r1}
 8000b7a:	9a06      	ldr	r2, [sp, #24]
 8000b7c:	e883 0003 	stmia.w	r3, {r0, r1}
 8000b80:	f89d 501c 	ldrb.w	r5, [sp, #28]
 8000b84:	f8bd 3012 	ldrh.w	r3, [sp, #18]
 8000b88:	82a2      	strh	r2, [r4, #20]
 8000b8a:	0c12      	lsrs	r2, r2, #16
 8000b8c:	75a2      	strb	r2, [r4, #22]
 8000b8e:	f884 5020 	strb.w	r5, [r4, #32]
 8000b92:	b10b      	cbz	r3, 8000b98 <InitKey+0x3c>
 8000b94:	f3c5 0380 	ubfx	r3, r5, #2, #1
 8000b98:	f894 2020 	ldrb.w	r2, [r4, #32]
 8000b9c:	f363 0282 	bfi	r2, r3, #2, #1
 8000ba0:	f884 2020 	strb.w	r2, [r4, #32]
 8000ba4:	e8bd 4030 	ldmia.w	sp!, {r4, r5, lr}
 8000ba8:	b002      	add	sp, #8
 8000baa:	4770      	bx	lr

08000bac <HandleKey>:
 8000bac:	6803      	ldr	r3, [r0, #0]
 8000bae:	8882      	ldrh	r2, [r0, #4]
 8000bb0:	689b      	ldr	r3, [r3, #8]
 8000bb2:	401a      	ands	r2, r3
 8000bb4:	f890 3020 	ldrb.w	r3, [r0, #32]
 8000bb8:	f3c3 01c0 	ubfx	r1, r3, #3, #1
 8000bbc:	428a      	cmp	r2, r1
 8000bbe:	6882      	ldr	r2, [r0, #8]
 8000bc0:	d119      	bne.n	8000bf6 <HandleKey+0x4a>
 8000bc2:	68c1      	ldr	r1, [r0, #12]
 8000bc4:	3201      	adds	r2, #1
 8000bc6:	3101      	adds	r1, #1
 8000bc8:	60c1      	str	r1, [r0, #12]
 8000bca:	0759      	lsls	r1, r3, #29
 8000bcc:	6082      	str	r2, [r0, #8]
 8000bce:	d551      	bpl.n	8000c74 <HandleKey+0xc8>
 8000bd0:	8b41      	ldrh	r1, [r0, #26]
 8000bd2:	428a      	cmp	r2, r1
 8000bd4:	d14e      	bne.n	8000c74 <HandleKey+0xc8>
 8000bd6:	f013 0f02 	tst.w	r3, #2
 8000bda:	f043 0301 	orr.w	r3, r3, #1
 8000bde:	f880 3020 	strb.w	r3, [r0, #32]
 8000be2:	d005      	beq.n	8000bf0 <HandleKey+0x44>
 8000be4:	8bc3      	ldrh	r3, [r0, #30]
 8000be6:	1ad2      	subs	r2, r2, r3
 8000be8:	6082      	str	r2, [r0, #8]
 8000bea:	f990 0014 	ldrsb.w	r0, [r0, #20]
 8000bee:	4770      	bx	lr
 8000bf0:	f990 0015 	ldrsb.w	r0, [r0, #21]
 8000bf4:	4770      	bx	lr
 8000bf6:	2100      	movs	r1, #0
 8000bf8:	60c1      	str	r1, [r0, #12]
 8000bfa:	8b01      	ldrh	r1, [r0, #24]
 8000bfc:	428a      	cmp	r2, r1
 8000bfe:	d307      	bcc.n	8000c10 <HandleKey+0x64>
 8000c00:	f013 0301 	ands.w	r3, r3, #1
 8000c04:	d104      	bne.n	8000c10 <HandleKey+0x64>
 8000c06:	8203      	strh	r3, [r0, #16]
 8000c08:	6083      	str	r3, [r0, #8]
 8000c0a:	7c83      	ldrb	r3, [r0, #18]
 8000c0c:	3301      	adds	r3, #1
 8000c0e:	7483      	strb	r3, [r0, #18]
 8000c10:	8a03      	ldrh	r3, [r0, #16]
 8000c12:	8b82      	ldrh	r2, [r0, #28]
 8000c14:	3301      	adds	r3, #1
 8000c16:	b29b      	uxth	r3, r3
 8000c18:	429a      	cmp	r2, r3
 8000c1a:	8203      	strh	r3, [r0, #16]
 8000c1c:	d828      	bhi.n	8000c70 <HandleKey+0xc4>
 8000c1e:	2300      	movs	r3, #0
 8000c20:	8203      	strh	r3, [r0, #16]
 8000c22:	f890 3020 	ldrb.w	r3, [r0, #32]
 8000c26:	7c82      	ldrb	r2, [r0, #18]
 8000c28:	f013 0f10 	tst.w	r3, #16
 8000c2c:	d00c      	beq.n	8000c48 <HandleKey+0x9c>
 8000c2e:	2a01      	cmp	r2, #1
 8000c30:	d90a      	bls.n	8000c48 <HandleKey+0x9c>
 8000c32:	f013 0101 	ands.w	r1, r3, #1
 8000c36:	d107      	bne.n	8000c48 <HandleKey+0x9c>
 8000c38:	f043 0301 	orr.w	r3, r3, #1
 8000c3c:	7481      	strb	r1, [r0, #18]
 8000c3e:	f880 3020 	strb.w	r3, [r0, #32]
 8000c42:	f990 0016 	ldrsb.w	r0, [r0, #22]
 8000c46:	4770      	bx	lr
 8000c48:	2a01      	cmp	r2, #1
 8000c4a:	f890 2020 	ldrb.w	r2, [r0, #32]
 8000c4e:	d108      	bne.n	8000c62 <HandleKey+0xb6>
 8000c50:	f013 0301 	ands.w	r3, r3, #1
 8000c54:	d105      	bne.n	8000c62 <HandleKey+0xb6>
 8000c56:	7483      	strb	r3, [r0, #18]
 8000c58:	f042 0301 	orr.w	r3, r2, #1
 8000c5c:	f880 3020 	strb.w	r3, [r0, #32]
 8000c60:	e7c3      	b.n	8000bea <HandleKey+0x3e>
 8000c62:	4613      	mov	r3, r2
 8000c64:	f36f 0300 	bfc	r3, #0, #1
 8000c68:	f880 3020 	strb.w	r3, [r0, #32]
 8000c6c:	2300      	movs	r3, #0
 8000c6e:	7483      	strb	r3, [r0, #18]
 8000c70:	2300      	movs	r3, #0
 8000c72:	6083      	str	r3, [r0, #8]
 8000c74:	f04f 30ff 	mov.w	r0, #4294967295
 8000c78:	4770      	bx	lr
	...

08000c7c <EnterPrograms>:
 8000c7c:	4a0a      	ldr	r2, [pc, #40]	; (8000ca8 <EnterPrograms+0x2c>)
 8000c7e:	7813      	ldrb	r3, [r2, #0]
 8000c80:	f043 0302 	orr.w	r3, r3, #2
 8000c84:	7013      	strb	r3, [r2, #0]
 8000c86:	2202      	movs	r2, #2
 8000c88:	4b08      	ldr	r3, [pc, #32]	; (8000cac <EnterPrograms+0x30>)
 8000c8a:	701a      	strb	r2, [r3, #0]
 8000c8c:	4b08      	ldr	r3, [pc, #32]	; (8000cb0 <EnterPrograms+0x34>)
 8000c8e:	f893 2044 	ldrb.w	r2, [r3, #68]	; 0x44
 8000c92:	f042 0202 	orr.w	r2, r2, #2
 8000c96:	f883 2044 	strb.w	r2, [r3, #68]	; 0x44
 8000c9a:	f893 2068 	ldrb.w	r2, [r3, #104]	; 0x68
 8000c9e:	f042 0202 	orr.w	r2, r2, #2
 8000ca2:	f883 2068 	strb.w	r2, [r3, #104]	; 0x68
 8000ca6:	4770      	bx	lr
 8000ca8:	20000641 	.word	0x20000641
 8000cac:	20000645 	.word	0x20000645
 8000cb0:	200005b0 	.word	0x200005b0

08000cb4 <SwitchParameter>:
 8000cb4:	4a04      	ldr	r2, [pc, #16]	; (8000cc8 <SwitchParameter+0x14>)
 8000cb6:	7811      	ldrb	r1, [r2, #0]
 8000cb8:	2906      	cmp	r1, #6
 8000cba:	bf34      	ite	cc
 8000cbc:	2301      	movcc	r3, #1
 8000cbe:	23fa      	movcs	r3, #250	; 0xfa
 8000cc0:	440b      	add	r3, r1
 8000cc2:	7013      	strb	r3, [r2, #0]
 8000cc4:	4770      	bx	lr
 8000cc6:	bf00      	nop
 8000cc8:	20000648 	.word	0x20000648

08000ccc <StartProgram>:
 8000ccc:	4b06      	ldr	r3, [pc, #24]	; (8000ce8 <StartProgram+0x1c>)
 8000cce:	f893 2044 	ldrb.w	r2, [r3, #68]	; 0x44
 8000cd2:	f36f 0241 	bfc	r2, #1, #1
 8000cd6:	f883 2044 	strb.w	r2, [r3, #68]	; 0x44
 8000cda:	f893 2068 	ldrb.w	r2, [r3, #104]	; 0x68
 8000cde:	f36f 0241 	bfc	r2, #1, #1
 8000ce2:	f883 2068 	strb.w	r2, [r3, #104]	; 0x68
 8000ce6:	4770      	bx	lr
 8000ce8:	200005b0 	.word	0x200005b0

08000cec <ToServSelect>:
 8000cec:	4a04      	ldr	r2, [pc, #16]	; (8000d00 <ToServSelect+0x14>)
 8000cee:	7813      	ldrb	r3, [r2, #0]
 8000cf0:	f043 0302 	orr.w	r3, r3, #2
 8000cf4:	7013      	strb	r3, [r2, #0]
 8000cf6:	2200      	movs	r2, #0
 8000cf8:	4b02      	ldr	r3, [pc, #8]	; (8000d04 <ToServSelect+0x18>)
 8000cfa:	701a      	strb	r2, [r3, #0]
 8000cfc:	4770      	bx	lr
 8000cfe:	bf00      	nop
 8000d00:	20000641 	.word	0x20000641
 8000d04:	20000643 	.word	0x20000643

08000d08 <PreviousService>:
 8000d08:	4a05      	ldr	r2, [pc, #20]	; (8000d20 <PreviousService+0x18>)
 8000d0a:	7813      	ldrb	r3, [r2, #0]
 8000d0c:	b12b      	cbz	r3, 8000d1a <PreviousService+0x12>
 8000d0e:	3b01      	subs	r3, #1
 8000d10:	2b08      	cmp	r3, #8
 8000d12:	bf28      	it	cs
 8000d14:	2308      	movcs	r3, #8
 8000d16:	7013      	strb	r3, [r2, #0]
 8000d18:	4770      	bx	lr
 8000d1a:	2308      	movs	r3, #8
 8000d1c:	e7fb      	b.n	8000d16 <PreviousService+0xe>
 8000d1e:	bf00      	nop
 8000d20:	2000064a 	.word	0x2000064a

08000d24 <NextService>:
 8000d24:	4a03      	ldr	r2, [pc, #12]	; (8000d34 <NextService+0x10>)
 8000d26:	7813      	ldrb	r3, [r2, #0]
 8000d28:	2b07      	cmp	r3, #7
 8000d2a:	bf8c      	ite	hi
 8000d2c:	2300      	movhi	r3, #0
 8000d2e:	3301      	addls	r3, #1
 8000d30:	7013      	strb	r3, [r2, #0]
 8000d32:	4770      	bx	lr
 8000d34:	2000064a 	.word	0x2000064a

08000d38 <ConfirmChoice>:
 8000d38:	4770      	bx	lr
	...

08000d3c <EnterService>:
 8000d3c:	4b08      	ldr	r3, [pc, #32]	; (8000d60 <EnterService+0x24>)
 8000d3e:	4909      	ldr	r1, [pc, #36]	; (8000d64 <EnterService+0x28>)
 8000d40:	f893 2044 	ldrb.w	r2, [r3, #68]	; 0x44
 8000d44:	4808      	ldr	r0, [pc, #32]	; (8000d68 <EnterService+0x2c>)
 8000d46:	f042 0202 	orr.w	r2, r2, #2
 8000d4a:	f883 2044 	strb.w	r2, [r3, #68]	; 0x44
 8000d4e:	f893 2068 	ldrb.w	r2, [r3, #104]	; 0x68
 8000d52:	f042 0202 	orr.w	r2, r2, #2
 8000d56:	f883 2068 	strb.w	r2, [r3, #104]	; 0x68
 8000d5a:	2200      	movs	r2, #0
 8000d5c:	f000 bb8a 	b.w	8001474 <ChangeToServiceModeType>
 8000d60:	200005b0 	.word	0x200005b0
 8000d64:	20000640 	.word	0x20000640
 8000d68:	20000643 	.word	0x20000643

08000d6c <ReturnToEntry>:
 8000d6c:	4a0b      	ldr	r2, [pc, #44]	; (8000d9c <ReturnToEntry+0x30>)
 8000d6e:	490c      	ldr	r1, [pc, #48]	; (8000da0 <ReturnToEntry+0x34>)
 8000d70:	7813      	ldrb	r3, [r2, #0]
 8000d72:	480c      	ldr	r0, [pc, #48]	; (8000da4 <ReturnToEntry+0x38>)
 8000d74:	f043 0302 	orr.w	r3, r3, #2
 8000d78:	7013      	strb	r3, [r2, #0]
 8000d7a:	4b0b      	ldr	r3, [pc, #44]	; (8000da8 <ReturnToEntry+0x3c>)
 8000d7c:	f893 2044 	ldrb.w	r2, [r3, #68]	; 0x44
 8000d80:	f36f 0241 	bfc	r2, #1, #1
 8000d84:	f883 2044 	strb.w	r2, [r3, #68]	; 0x44
 8000d88:	f893 2068 	ldrb.w	r2, [r3, #104]	; 0x68
 8000d8c:	f36f 0241 	bfc	r2, #1, #1
 8000d90:	f883 2068 	strb.w	r2, [r3, #104]	; 0x68
 8000d94:	2201      	movs	r2, #1
 8000d96:	f000 bb69 	b.w	800146c <ChangeToMainModeType>
 8000d9a:	bf00      	nop
 8000d9c:	20000641 	.word	0x20000641
 8000da0:	20000640 	.word	0x20000640
 8000da4:	20000645 	.word	0x20000645
 8000da8:	200005b0 	.word	0x200005b0

08000dac <StockUp>:
 8000dac:	4770      	bx	lr

08000dae <Dummy>:
 8000dae:	4770      	bx	lr

08000db0 <StockDown>:
 8000db0:	4770      	bx	lr

08000db2 <DecreaseValue>:
 8000db2:	b510      	push	{r4, lr}
 8000db4:	4604      	mov	r4, r0
 8000db6:	9802      	ldr	r0, [sp, #8]
 8000db8:	2800      	cmp	r0, #0
 8000dba:	bf08      	it	eq
 8000dbc:	2001      	moveq	r0, #1
 8000dbe:	f5b3 7f7a 	cmp.w	r3, #1000	; 0x3e8
 8000dc2:	d30f      	bcc.n	8000de4 <DecreaseValue+0x32>
 8000dc4:	428c      	cmp	r4, r1
 8000dc6:	bf81      	itttt	hi
 8000dc8:	f5a3 737a 	subhi.w	r3, r3, #1000	; 0x3e8
 8000dcc:	fbb3 f3f0 	udivhi	r3, r3, r0
 8000dd0:	f104 34ff 	addhi.w	r4, r4, #4294967295
 8000dd4:	1ae4      	subhi	r4, r4, r3
 8000dd6:	4294      	cmp	r4, r2
 8000dd8:	d80f      	bhi.n	8000dfa <DecreaseValue+0x48>
 8000dda:	428c      	cmp	r4, r1
 8000ddc:	d30d      	bcc.n	8000dfa <DecreaseValue+0x48>
 8000dde:	4622      	mov	r2, r4
 8000de0:	4610      	mov	r0, r2
 8000de2:	bd10      	pop	{r4, pc}
 8000de4:	428c      	cmp	r4, r1
 8000de6:	d906      	bls.n	8000df6 <DecreaseValue+0x44>
 8000de8:	3c01      	subs	r4, #1
 8000dea:	42a2      	cmp	r2, r4
 8000dec:	d3f8      	bcc.n	8000de0 <DecreaseValue+0x2e>
 8000dee:	42a1      	cmp	r1, r4
 8000df0:	bf98      	it	ls
 8000df2:	4622      	movls	r2, r4
 8000df4:	e7f4      	b.n	8000de0 <DecreaseValue+0x2e>
 8000df6:	4614      	mov	r4, r2
 8000df8:	e7f9      	b.n	8000dee <DecreaseValue+0x3c>
 8000dfa:	428a      	cmp	r2, r1
 8000dfc:	bf28      	it	cs
 8000dfe:	460a      	movcs	r2, r1
 8000e00:	e7ee      	b.n	8000de0 <DecreaseValue+0x2e>
	...

08000e04 <DecreaseParameter>:
 8000e04:	b537      	push	{r0, r1, r2, r4, r5, lr}
 8000e06:	4b4a      	ldr	r3, [pc, #296]	; (8000f30 <DecreaseParameter+0x12c>)
 8000e08:	781a      	ldrb	r2, [r3, #0]
 8000e0a:	2a06      	cmp	r2, #6
 8000e0c:	f200 808c 	bhi.w	8000f28 <DecreaseParameter+0x124>
 8000e10:	e8df f002 	tbb	[pc, r2]
 8000e14:	402c1404 	.word	0x402c1404
 8000e18:	6354      	.short	0x6354
 8000e1a:	76          	.byte	0x76
 8000e1b:	00          	.byte	0x00
 8000e1c:	f44f 4380 	mov.w	r3, #16384	; 0x4000
 8000e20:	4c44      	ldr	r4, [pc, #272]	; (8000f34 <DecreaseParameter+0x130>)
 8000e22:	4a45      	ldr	r2, [pc, #276]	; (8000f38 <DecreaseParameter+0x134>)
 8000e24:	7820      	ldrb	r0, [r4, #0]
 8000e26:	4945      	ldr	r1, [pc, #276]	; (8000f3c <DecreaseParameter+0x138>)
 8000e28:	9300      	str	r3, [sp, #0]
 8000e2a:	4b45      	ldr	r3, [pc, #276]	; (8000f40 <DecreaseParameter+0x13c>)
 8000e2c:	8812      	ldrh	r2, [r2, #0]
 8000e2e:	6b1b      	ldr	r3, [r3, #48]	; 0x30
 8000e30:	8809      	ldrh	r1, [r1, #0]
 8000e32:	f7ff ffbe 	bl	8000db2 <DecreaseValue>
 8000e36:	7020      	strb	r0, [r4, #0]
 8000e38:	b003      	add	sp, #12
 8000e3a:	bd30      	pop	{r4, r5, pc}
 8000e3c:	220a      	movs	r2, #10
 8000e3e:	4b3d      	ldr	r3, [pc, #244]	; (8000f34 <DecreaseParameter+0x130>)
 8000e40:	493e      	ldr	r1, [pc, #248]	; (8000f3c <DecreaseParameter+0x138>)
 8000e42:	781d      	ldrb	r5, [r3, #0]
 8000e44:	4b3f      	ldr	r3, [pc, #252]	; (8000f44 <DecreaseParameter+0x140>)
 8000e46:	8849      	ldrh	r1, [r1, #2]
 8000e48:	fb02 3505 	mla	r5, r2, r5, r3
 8000e4c:	f44f 4380 	mov.w	r3, #16384	; 0x4000
 8000e50:	7a2c      	ldrb	r4, [r5, #8]
 8000e52:	4a39      	ldr	r2, [pc, #228]	; (8000f38 <DecreaseParameter+0x134>)
 8000e54:	9300      	str	r3, [sp, #0]
 8000e56:	4b3a      	ldr	r3, [pc, #232]	; (8000f40 <DecreaseParameter+0x13c>)
 8000e58:	f004 0003 	and.w	r0, r4, #3
 8000e5c:	6b1b      	ldr	r3, [r3, #48]	; 0x30
 8000e5e:	8852      	ldrh	r2, [r2, #2]
 8000e60:	f7ff ffa7 	bl	8000db2 <DecreaseValue>
 8000e64:	f360 0401 	bfi	r4, r0, #0, #2
 8000e68:	722c      	strb	r4, [r5, #8]
 8000e6a:	e7e5      	b.n	8000e38 <DecreaseParameter+0x34>
 8000e6c:	220a      	movs	r2, #10
 8000e6e:	4b31      	ldr	r3, [pc, #196]	; (8000f34 <DecreaseParameter+0x130>)
 8000e70:	4932      	ldr	r1, [pc, #200]	; (8000f3c <DecreaseParameter+0x138>)
 8000e72:	781c      	ldrb	r4, [r3, #0]
 8000e74:	4b33      	ldr	r3, [pc, #204]	; (8000f44 <DecreaseParameter+0x140>)
 8000e76:	8889      	ldrh	r1, [r1, #4]
 8000e78:	fb02 3404 	mla	r4, r2, r4, r3
 8000e7c:	f44f 7380 	mov.w	r3, #256	; 0x100
 8000e80:	8860      	ldrh	r0, [r4, #2]
 8000e82:	4a2d      	ldr	r2, [pc, #180]	; (8000f38 <DecreaseParameter+0x134>)
 8000e84:	9300      	str	r3, [sp, #0]
 8000e86:	4b2e      	ldr	r3, [pc, #184]	; (8000f40 <DecreaseParameter+0x13c>)
 8000e88:	8892      	ldrh	r2, [r2, #4]
 8000e8a:	6b1b      	ldr	r3, [r3, #48]	; 0x30
 8000e8c:	f7ff ff91 	bl	8000db2 <DecreaseValue>
 8000e90:	8060      	strh	r0, [r4, #2]
 8000e92:	e7d1      	b.n	8000e38 <DecreaseParameter+0x34>
 8000e94:	220a      	movs	r2, #10
 8000e96:	4b27      	ldr	r3, [pc, #156]	; (8000f34 <DecreaseParameter+0x130>)
 8000e98:	4928      	ldr	r1, [pc, #160]	; (8000f3c <DecreaseParameter+0x138>)
 8000e9a:	781c      	ldrb	r4, [r3, #0]
 8000e9c:	4b29      	ldr	r3, [pc, #164]	; (8000f44 <DecreaseParameter+0x140>)
 8000e9e:	88c9      	ldrh	r1, [r1, #6]
 8000ea0:	fb02 3404 	mla	r4, r2, r4, r3
 8000ea4:	f44f 7300 	mov.w	r3, #512	; 0x200
 8000ea8:	88a0      	ldrh	r0, [r4, #4]
 8000eaa:	4a23      	ldr	r2, [pc, #140]	; (8000f38 <DecreaseParameter+0x134>)
 8000eac:	9300      	str	r3, [sp, #0]
 8000eae:	4b24      	ldr	r3, [pc, #144]	; (8000f40 <DecreaseParameter+0x13c>)
 8000eb0:	88d2      	ldrh	r2, [r2, #6]
 8000eb2:	6b1b      	ldr	r3, [r3, #48]	; 0x30
 8000eb4:	f7ff ff7d 	bl	8000db2 <DecreaseValue>
 8000eb8:	80a0      	strh	r0, [r4, #4]
 8000eba:	e7bd      	b.n	8000e38 <DecreaseParameter+0x34>
 8000ebc:	210a      	movs	r1, #10
 8000ebe:	4b1d      	ldr	r3, [pc, #116]	; (8000f34 <DecreaseParameter+0x130>)
 8000ec0:	781a      	ldrb	r2, [r3, #0]
 8000ec2:	4b20      	ldr	r3, [pc, #128]	; (8000f44 <DecreaseParameter+0x140>)
 8000ec4:	fb01 3202 	mla	r2, r1, r2, r3
 8000ec8:	7a13      	ldrb	r3, [r2, #8]
 8000eca:	f3c3 1140 	ubfx	r1, r3, #5, #1
 8000ece:	f081 0101 	eor.w	r1, r1, #1
 8000ed2:	f361 1345 	bfi	r3, r1, #5, #1
 8000ed6:	7213      	strb	r3, [r2, #8]
 8000ed8:	e7ae      	b.n	8000e38 <DecreaseParameter+0x34>
 8000eda:	240a      	movs	r4, #10
 8000edc:	4b15      	ldr	r3, [pc, #84]	; (8000f34 <DecreaseParameter+0x130>)
 8000ede:	4d19      	ldr	r5, [pc, #100]	; (8000f44 <DecreaseParameter+0x140>)
 8000ee0:	781b      	ldrb	r3, [r3, #0]
 8000ee2:	4a15      	ldr	r2, [pc, #84]	; (8000f38 <DecreaseParameter+0x134>)
 8000ee4:	435c      	muls	r4, r3
 8000ee6:	f44f 7300 	mov.w	r3, #512	; 0x200
 8000eea:	5b28      	ldrh	r0, [r5, r4]
 8000eec:	4913      	ldr	r1, [pc, #76]	; (8000f3c <DecreaseParameter+0x138>)
 8000eee:	9300      	str	r3, [sp, #0]
 8000ef0:	4b13      	ldr	r3, [pc, #76]	; (8000f40 <DecreaseParameter+0x13c>)
 8000ef2:	8952      	ldrh	r2, [r2, #10]
 8000ef4:	6b1b      	ldr	r3, [r3, #48]	; 0x30
 8000ef6:	8949      	ldrh	r1, [r1, #10]
 8000ef8:	f7ff ff5b 	bl	8000db2 <DecreaseValue>
 8000efc:	5328      	strh	r0, [r5, r4]
 8000efe:	e79b      	b.n	8000e38 <DecreaseParameter+0x34>
 8000f00:	220a      	movs	r2, #10
 8000f02:	4b0c      	ldr	r3, [pc, #48]	; (8000f34 <DecreaseParameter+0x130>)
 8000f04:	490d      	ldr	r1, [pc, #52]	; (8000f3c <DecreaseParameter+0x138>)
 8000f06:	781c      	ldrb	r4, [r3, #0]
 8000f08:	4b0e      	ldr	r3, [pc, #56]	; (8000f44 <DecreaseParameter+0x140>)
 8000f0a:	8989      	ldrh	r1, [r1, #12]
 8000f0c:	fb02 3404 	mla	r4, r2, r4, r3
 8000f10:	f44f 7300 	mov.w	r3, #512	; 0x200
 8000f14:	88e0      	ldrh	r0, [r4, #6]
 8000f16:	4a08      	ldr	r2, [pc, #32]	; (8000f38 <DecreaseParameter+0x134>)
 8000f18:	9300      	str	r3, [sp, #0]
 8000f1a:	4b09      	ldr	r3, [pc, #36]	; (8000f40 <DecreaseParameter+0x13c>)
 8000f1c:	8992      	ldrh	r2, [r2, #12]
 8000f1e:	6b1b      	ldr	r3, [r3, #48]	; 0x30
 8000f20:	f7ff ff47 	bl	8000db2 <DecreaseValue>
 8000f24:	80e0      	strh	r0, [r4, #6]
 8000f26:	e787      	b.n	8000e38 <DecreaseParameter+0x34>
 8000f28:	2200      	movs	r2, #0
 8000f2a:	701a      	strb	r2, [r3, #0]
 8000f2c:	e784      	b.n	8000e38 <DecreaseParameter+0x34>
 8000f2e:	bf00      	nop
 8000f30:	20000648 	.word	0x20000648
 8000f34:	20000647 	.word	0x20000647
 8000f38:	08002344 	.word	0x08002344
 8000f3c:	08002352 	.word	0x08002352
 8000f40:	200005b0 	.word	0x200005b0
 8000f44:	2000064c 	.word	0x2000064c

08000f48 <IncreaseValue>:
 8000f48:	b510      	push	{r4, lr}
 8000f4a:	4604      	mov	r4, r0
 8000f4c:	9802      	ldr	r0, [sp, #8]
 8000f4e:	2800      	cmp	r0, #0
 8000f50:	bf08      	it	eq
 8000f52:	2001      	moveq	r0, #1
 8000f54:	f5b3 7f7a 	cmp.w	r3, #1000	; 0x3e8
 8000f58:	d30e      	bcc.n	8000f78 <IncreaseValue+0x30>
 8000f5a:	4294      	cmp	r4, r2
 8000f5c:	bf3f      	itttt	cc
 8000f5e:	f5a3 737a 	subcc.w	r3, r3, #1000	; 0x3e8
 8000f62:	fbb3 f3f0 	udivcc	r3, r3, r0
 8000f66:	3401      	addcc	r4, #1
 8000f68:	18e4      	addcc	r4, r4, r3
 8000f6a:	4294      	cmp	r4, r2
 8000f6c:	d802      	bhi.n	8000f74 <IncreaseValue+0x2c>
 8000f6e:	428c      	cmp	r4, r1
 8000f70:	bf28      	it	cs
 8000f72:	4622      	movcs	r2, r4
 8000f74:	4610      	mov	r0, r2
 8000f76:	bd10      	pop	{r4, pc}
 8000f78:	4294      	cmp	r4, r2
 8000f7a:	bf34      	ite	cc
 8000f7c:	1c62      	addcc	r2, r4, #1
 8000f7e:	460a      	movcs	r2, r1
 8000f80:	e7f8      	b.n	8000f74 <IncreaseValue+0x2c>
	...

08000f84 <IncreaseParameter>:
 8000f84:	b537      	push	{r0, r1, r2, r4, r5, lr}
 8000f86:	4b4a      	ldr	r3, [pc, #296]	; (80010b0 <IncreaseParameter+0x12c>)
 8000f88:	781a      	ldrb	r2, [r3, #0]
 8000f8a:	2a06      	cmp	r2, #6
 8000f8c:	f200 808c 	bhi.w	80010a8 <IncreaseParameter+0x124>
 8000f90:	e8df f002 	tbb	[pc, r2]
 8000f94:	402c1404 	.word	0x402c1404
 8000f98:	6354      	.short	0x6354
 8000f9a:	76          	.byte	0x76
 8000f9b:	00          	.byte	0x00
 8000f9c:	f44f 4380 	mov.w	r3, #16384	; 0x4000
 8000fa0:	4c44      	ldr	r4, [pc, #272]	; (80010b4 <IncreaseParameter+0x130>)
 8000fa2:	4a45      	ldr	r2, [pc, #276]	; (80010b8 <IncreaseParameter+0x134>)
 8000fa4:	7820      	ldrb	r0, [r4, #0]
 8000fa6:	4945      	ldr	r1, [pc, #276]	; (80010bc <IncreaseParameter+0x138>)
 8000fa8:	9300      	str	r3, [sp, #0]
 8000faa:	4b45      	ldr	r3, [pc, #276]	; (80010c0 <IncreaseParameter+0x13c>)
 8000fac:	8812      	ldrh	r2, [r2, #0]
 8000fae:	6d5b      	ldr	r3, [r3, #84]	; 0x54
 8000fb0:	8809      	ldrh	r1, [r1, #0]
 8000fb2:	f7ff ffc9 	bl	8000f48 <IncreaseValue>
 8000fb6:	7020      	strb	r0, [r4, #0]
 8000fb8:	b003      	add	sp, #12
 8000fba:	bd30      	pop	{r4, r5, pc}
 8000fbc:	220a      	movs	r2, #10
 8000fbe:	4b3d      	ldr	r3, [pc, #244]	; (80010b4 <IncreaseParameter+0x130>)
 8000fc0:	493e      	ldr	r1, [pc, #248]	; (80010bc <IncreaseParameter+0x138>)
 8000fc2:	781d      	ldrb	r5, [r3, #0]
 8000fc4:	4b3f      	ldr	r3, [pc, #252]	; (80010c4 <IncreaseParameter+0x140>)
 8000fc6:	8849      	ldrh	r1, [r1, #2]
 8000fc8:	fb02 3505 	mla	r5, r2, r5, r3
 8000fcc:	f44f 4380 	mov.w	r3, #16384	; 0x4000
 8000fd0:	7a2c      	ldrb	r4, [r5, #8]
 8000fd2:	4a39      	ldr	r2, [pc, #228]	; (80010b8 <IncreaseParameter+0x134>)
 8000fd4:	9300      	str	r3, [sp, #0]
 8000fd6:	4b3a      	ldr	r3, [pc, #232]	; (80010c0 <IncreaseParameter+0x13c>)
 8000fd8:	f004 0003 	and.w	r0, r4, #3
 8000fdc:	6d5b      	ldr	r3, [r3, #84]	; 0x54
 8000fde:	8852      	ldrh	r2, [r2, #2]
 8000fe0:	f7ff ffb2 	bl	8000f48 <IncreaseValue>
 8000fe4:	f360 0401 	bfi	r4, r0, #0, #2
 8000fe8:	722c      	strb	r4, [r5, #8]
 8000fea:	e7e5      	b.n	8000fb8 <IncreaseParameter+0x34>
 8000fec:	220a      	movs	r2, #10
 8000fee:	4b31      	ldr	r3, [pc, #196]	; (80010b4 <IncreaseParameter+0x130>)
 8000ff0:	4932      	ldr	r1, [pc, #200]	; (80010bc <IncreaseParameter+0x138>)
 8000ff2:	781c      	ldrb	r4, [r3, #0]
 8000ff4:	4b33      	ldr	r3, [pc, #204]	; (80010c4 <IncreaseParameter+0x140>)
 8000ff6:	8889      	ldrh	r1, [r1, #4]
 8000ff8:	fb02 3404 	mla	r4, r2, r4, r3
 8000ffc:	f44f 7380 	mov.w	r3, #256	; 0x100
 8001000:	8860      	ldrh	r0, [r4, #2]
 8001002:	4a2d      	ldr	r2, [pc, #180]	; (80010b8 <IncreaseParameter+0x134>)
 8001004:	9300      	str	r3, [sp, #0]
 8001006:	4b2e      	ldr	r3, [pc, #184]	; (80010c0 <IncreaseParameter+0x13c>)
 8001008:	8892      	ldrh	r2, [r2, #4]
 800100a:	6d5b      	ldr	r3, [r3, #84]	; 0x54
 800100c:	f7ff ff9c 	bl	8000f48 <IncreaseValue>
 8001010:	8060      	strh	r0, [r4, #2]
 8001012:	e7d1      	b.n	8000fb8 <IncreaseParameter+0x34>
 8001014:	220a      	movs	r2, #10
 8001016:	4b27      	ldr	r3, [pc, #156]	; (80010b4 <IncreaseParameter+0x130>)
 8001018:	4928      	ldr	r1, [pc, #160]	; (80010bc <IncreaseParameter+0x138>)
 800101a:	781c      	ldrb	r4, [r3, #0]
 800101c:	4b29      	ldr	r3, [pc, #164]	; (80010c4 <IncreaseParameter+0x140>)
 800101e:	88c9      	ldrh	r1, [r1, #6]
 8001020:	fb02 3404 	mla	r4, r2, r4, r3
 8001024:	f44f 7300 	mov.w	r3, #512	; 0x200
 8001028:	88a0      	ldrh	r0, [r4, #4]
 800102a:	4a23      	ldr	r2, [pc, #140]	; (80010b8 <IncreaseParameter+0x134>)
 800102c:	9300      	str	r3, [sp, #0]
 800102e:	4b24      	ldr	r3, [pc, #144]	; (80010c0 <IncreaseParameter+0x13c>)
 8001030:	88d2      	ldrh	r2, [r2, #6]
 8001032:	6d5b      	ldr	r3, [r3, #84]	; 0x54
 8001034:	f7ff ff88 	bl	8000f48 <IncreaseValue>
 8001038:	80a0      	strh	r0, [r4, #4]
 800103a:	e7bd      	b.n	8000fb8 <IncreaseParameter+0x34>
 800103c:	210a      	movs	r1, #10
 800103e:	4b1d      	ldr	r3, [pc, #116]	; (80010b4 <IncreaseParameter+0x130>)
 8001040:	781a      	ldrb	r2, [r3, #0]
 8001042:	4b20      	ldr	r3, [pc, #128]	; (80010c4 <IncreaseParameter+0x140>)
 8001044:	fb01 3202 	mla	r2, r1, r2, r3
 8001048:	7a13      	ldrb	r3, [r2, #8]
 800104a:	f3c3 1140 	ubfx	r1, r3, #5, #1
 800104e:	f081 0101 	eor.w	r1, r1, #1
 8001052:	f361 1345 	bfi	r3, r1, #5, #1
 8001056:	7213      	strb	r3, [r2, #8]
 8001058:	e7ae      	b.n	8000fb8 <IncreaseParameter+0x34>
 800105a:	240a      	movs	r4, #10
 800105c:	4b15      	ldr	r3, [pc, #84]	; (80010b4 <IncreaseParameter+0x130>)
 800105e:	4d19      	ldr	r5, [pc, #100]	; (80010c4 <IncreaseParameter+0x140>)
 8001060:	781b      	ldrb	r3, [r3, #0]
 8001062:	4a15      	ldr	r2, [pc, #84]	; (80010b8 <IncreaseParameter+0x134>)
 8001064:	435c      	muls	r4, r3
 8001066:	f44f 7300 	mov.w	r3, #512	; 0x200
 800106a:	5b28      	ldrh	r0, [r5, r4]
 800106c:	4913      	ldr	r1, [pc, #76]	; (80010bc <IncreaseParameter+0x138>)
 800106e:	9300      	str	r3, [sp, #0]
 8001070:	4b13      	ldr	r3, [pc, #76]	; (80010c0 <IncreaseParameter+0x13c>)
 8001072:	8952      	ldrh	r2, [r2, #10]
 8001074:	6d5b      	ldr	r3, [r3, #84]	; 0x54
 8001076:	8949      	ldrh	r1, [r1, #10]
 8001078:	f7ff ff66 	bl	8000f48 <IncreaseValue>
 800107c:	5328      	strh	r0, [r5, r4]
 800107e:	e79b      	b.n	8000fb8 <IncreaseParameter+0x34>
 8001080:	220a      	movs	r2, #10
 8001082:	4b0c      	ldr	r3, [pc, #48]	; (80010b4 <IncreaseParameter+0x130>)
 8001084:	490d      	ldr	r1, [pc, #52]	; (80010bc <IncreaseParameter+0x138>)
 8001086:	781c      	ldrb	r4, [r3, #0]
 8001088:	4b0e      	ldr	r3, [pc, #56]	; (80010c4 <IncreaseParameter+0x140>)
 800108a:	8989      	ldrh	r1, [r1, #12]
 800108c:	fb02 3404 	mla	r4, r2, r4, r3
 8001090:	f44f 7300 	mov.w	r3, #512	; 0x200
 8001094:	88e0      	ldrh	r0, [r4, #6]
 8001096:	4a08      	ldr	r2, [pc, #32]	; (80010b8 <IncreaseParameter+0x134>)
 8001098:	9300      	str	r3, [sp, #0]
 800109a:	4b09      	ldr	r3, [pc, #36]	; (80010c0 <IncreaseParameter+0x13c>)
 800109c:	8992      	ldrh	r2, [r2, #12]
 800109e:	6d5b      	ldr	r3, [r3, #84]	; 0x54
 80010a0:	f7ff ff52 	bl	8000f48 <IncreaseValue>
 80010a4:	80e0      	strh	r0, [r4, #6]
 80010a6:	e787      	b.n	8000fb8 <IncreaseParameter+0x34>
 80010a8:	2200      	movs	r2, #0
 80010aa:	701a      	strb	r2, [r3, #0]
 80010ac:	e784      	b.n	8000fb8 <IncreaseParameter+0x34>
 80010ae:	bf00      	nop
 80010b0:	20000648 	.word	0x20000648
 80010b4:	20000647 	.word	0x20000647
 80010b8:	08002344 	.word	0x08002344
 80010bc:	08002352 	.word	0x08002352
 80010c0:	200005b0 	.word	0x200005b0
 80010c4:	2000064c 	.word	0x2000064c

080010c8 <delay_LCD>:
 80010c8:	f110 30ff 	adds.w	r0, r0, #4294967295
 80010cc:	d200      	bcs.n	80010d0 <delay_LCD+0x8>
 80010ce:	4770      	bx	lr
 80010d0:	bf00      	nop
 80010d2:	e7f9      	b.n	80010c8 <delay_LCD>

080010d4 <PutChr_LCD>:
 80010d4:	4b1a      	ldr	r3, [pc, #104]	; (8001140 <PutChr_LCD+0x6c>)
 80010d6:	68da      	ldr	r2, [r3, #12]
 80010d8:	2800      	cmp	r0, #0
 80010da:	d02d      	beq.n	8001138 <PutChr_LCD+0x64>
 80010dc:	f022 0202 	bic.w	r2, r2, #2
 80010e0:	60da      	str	r2, [r3, #12]
 80010e2:	68da      	ldr	r2, [r3, #12]
 80010e4:	f3c2 020b 	ubfx	r2, r2, #0, #12
 80010e8:	60da      	str	r2, [r3, #12]
 80010ea:	68da      	ldr	r2, [r3, #12]
 80010ec:	f042 0201 	orr.w	r2, r2, #1
 80010f0:	60da      	str	r2, [r3, #12]
 80010f2:	68d8      	ldr	r0, [r3, #12]
 80010f4:	020a      	lsls	r2, r1, #8
 80010f6:	f402 4270 	and.w	r2, r2, #61440	; 0xf000
 80010fa:	4302      	orrs	r2, r0
 80010fc:	60da      	str	r2, [r3, #12]
 80010fe:	bf00      	nop
 8001100:	bf00      	nop
 8001102:	68da      	ldr	r2, [r3, #12]
 8001104:	0309      	lsls	r1, r1, #12
 8001106:	f022 0201 	bic.w	r2, r2, #1
 800110a:	60da      	str	r2, [r3, #12]
 800110c:	68da      	ldr	r2, [r3, #12]
 800110e:	b289      	uxth	r1, r1
 8001110:	f3c2 020b 	ubfx	r2, r2, #0, #12
 8001114:	60da      	str	r2, [r3, #12]
 8001116:	68da      	ldr	r2, [r3, #12]
 8001118:	f042 0201 	orr.w	r2, r2, #1
 800111c:	60da      	str	r2, [r3, #12]
 800111e:	68da      	ldr	r2, [r3, #12]
 8001120:	4311      	orrs	r1, r2
 8001122:	60d9      	str	r1, [r3, #12]
 8001124:	bf00      	nop
 8001126:	bf00      	nop
 8001128:	68da      	ldr	r2, [r3, #12]
 800112a:	f44f 6048 	mov.w	r0, #3200	; 0xc80
 800112e:	f022 0201 	bic.w	r2, r2, #1
 8001132:	60da      	str	r2, [r3, #12]
 8001134:	f7ff bfc8 	b.w	80010c8 <delay_LCD>
 8001138:	f042 0202 	orr.w	r2, r2, #2
 800113c:	e7d0      	b.n	80010e0 <PutChr_LCD+0xc>
 800113e:	bf00      	nop
 8001140:	40010c00 	.word	0x40010c00

08001144 <PutClear_LCD>:
 8001144:	2101      	movs	r1, #1
 8001146:	b508      	push	{r3, lr}
 8001148:	4608      	mov	r0, r1
 800114a:	f7ff ffc3 	bl	80010d4 <PutChr_LCD>
 800114e:	e8bd 4008 	ldmia.w	sp!, {r3, lr}
 8001152:	f644 6020 	movw	r0, #20000	; 0x4e20
 8001156:	f7ff bfb7 	b.w	80010c8 <delay_LCD>
	...

0800115c <InitLCD>:
 800115c:	b570      	push	{r4, r5, r6, lr}
 800115e:	4814      	ldr	r0, [pc, #80]	; (80011b0 <InitLCD+0x54>)
 8001160:	f7ff ffb2 	bl	80010c8 <delay_LCD>
 8001164:	2400      	movs	r4, #0
 8001166:	4e13      	ldr	r6, [pc, #76]	; (80011b4 <InitLCD+0x58>)
 8001168:	4d13      	ldr	r5, [pc, #76]	; (80011b8 <InitLCD+0x5c>)
 800116a:	f836 0014 	ldrh.w	r0, [r6, r4, lsl #1]
 800116e:	0100      	lsls	r0, r0, #4
 8001170:	f7ff ffaa 	bl	80010c8 <delay_LCD>
 8001174:	5d29      	ldrb	r1, [r5, r4]
 8001176:	2001      	movs	r0, #1
 8001178:	3401      	adds	r4, #1
 800117a:	f7ff ffab 	bl	80010d4 <PutChr_LCD>
 800117e:	2c04      	cmp	r4, #4
 8001180:	d1f3      	bne.n	800116a <InitLCD+0xe>
 8001182:	f44f 507a 	mov.w	r0, #16000	; 0x3e80
 8001186:	f7ff ff9f 	bl	80010c8 <delay_LCD>
 800118a:	2140      	movs	r1, #64	; 0x40
 800118c:	2001      	movs	r0, #1
 800118e:	f7ff ffa1 	bl	80010d4 <PutChr_LCD>
 8001192:	2400      	movs	r4, #0
 8001194:	4d09      	ldr	r5, [pc, #36]	; (80011bc <InitLCD+0x60>)
 8001196:	5d29      	ldrb	r1, [r5, r4]
 8001198:	2000      	movs	r0, #0
 800119a:	3401      	adds	r4, #1
 800119c:	f7ff ff9a 	bl	80010d4 <PutChr_LCD>
 80011a0:	2c38      	cmp	r4, #56	; 0x38
 80011a2:	d1f8      	bne.n	8001196 <InitLCD+0x3a>
 80011a4:	2180      	movs	r1, #128	; 0x80
 80011a6:	e8bd 4070 	ldmia.w	sp!, {r4, r5, r6, lr}
 80011aa:	2001      	movs	r0, #1
 80011ac:	f7ff bf92 	b.w	80010d4 <PutChr_LCD>
 80011b0:	00023280 	.word	0x00023280
 80011b4:	080022fc 	.word	0x080022fc
 80011b8:	08002304 	.word	0x08002304
 80011bc:	08002308 	.word	0x08002308

080011c0 <PutStr_LCD>:
 80011c0:	280f      	cmp	r0, #15
 80011c2:	b570      	push	{r4, r5, r6, lr}
 80011c4:	4614      	mov	r4, r2
 80011c6:	461d      	mov	r5, r3
 80011c8:	d807      	bhi.n	80011da <PutStr_LCD+0x1a>
 80011ca:	0189      	lsls	r1, r1, #6
 80011cc:	f061 017f 	orn	r1, r1, #127	; 0x7f
 80011d0:	b2c9      	uxtb	r1, r1
 80011d2:	4401      	add	r1, r0
 80011d4:	2001      	movs	r0, #1
 80011d6:	f7ff ff7d 	bl	80010d4 <PutChr_LCD>
 80011da:	4e0a      	ldr	r6, [pc, #40]	; (8001204 <PutStr_LCD+0x44>)
 80011dc:	3c01      	subs	r4, #1
 80011de:	b26d      	sxtb	r5, r5
 80011e0:	f814 0f01 	ldrb.w	r0, [r4, #1]!
 80011e4:	b900      	cbnz	r0, 80011e8 <PutStr_LCD+0x28>
 80011e6:	bd70      	pop	{r4, r5, r6, pc}
 80011e8:	2d00      	cmp	r5, #0
 80011ea:	da07      	bge.n	80011fc <PutStr_LCD+0x3c>
 80011ec:	7833      	ldrb	r3, [r6, #0]
 80011ee:	075b      	lsls	r3, r3, #29
 80011f0:	d504      	bpl.n	80011fc <PutStr_LCD+0x3c>
 80011f2:	2120      	movs	r1, #32
 80011f4:	2000      	movs	r0, #0
 80011f6:	f7ff ff6d 	bl	80010d4 <PutChr_LCD>
 80011fa:	e7f1      	b.n	80011e0 <PutStr_LCD+0x20>
 80011fc:	f7ff f900 	bl	8000400 <SymbolToLCD>
 8001200:	b281      	uxth	r1, r0
 8001202:	e7f7      	b.n	80011f4 <PutStr_LCD+0x34>
 8001204:	20000641 	.word	0x20000641

08001208 <PutDgt_LCD>:
 8001208:	e92d 43f8 	stmdb	sp!, {r3, r4, r5, r6, r7, r8, r9, lr}
 800120c:	280f      	cmp	r0, #15
 800120e:	4615      	mov	r5, r2
 8001210:	461c      	mov	r4, r3
 8001212:	f89d 7020 	ldrb.w	r7, [sp, #32]
 8001216:	f89d 6024 	ldrb.w	r6, [sp, #36]	; 0x24
 800121a:	d807      	bhi.n	800122c <PutDgt_LCD+0x24>
 800121c:	0189      	lsls	r1, r1, #6
 800121e:	f061 017f 	orn	r1, r1, #127	; 0x7f
 8001222:	b2c9      	uxtb	r1, r1
 8001224:	4401      	add	r1, r0
 8001226:	2001      	movs	r0, #1
 8001228:	f7ff ff54 	bl	80010d4 <PutChr_LCD>
 800122c:	462a      	mov	r2, r5
 800122e:	f04f 0900 	mov.w	r9, #0
 8001232:	f8df 8074 	ldr.w	r8, [pc, #116]	; 80012a8 <PutDgt_LCD+0xa0>
 8001236:	2a00      	cmp	r2, #0
 8001238:	d034      	beq.n	80012a4 <PutDgt_LCD+0x9c>
 800123a:	2100      	movs	r1, #0
 800123c:	2301      	movs	r3, #1
 800123e:	1e55      	subs	r5, r2, #1
 8001240:	e003      	b.n	800124a <PutDgt_LCD+0x42>
 8001242:	eb03 0383 	add.w	r3, r3, r3, lsl #2
 8001246:	005b      	lsls	r3, r3, #1
 8001248:	b29b      	uxth	r3, r3
 800124a:	b2c8      	uxtb	r0, r1
 800124c:	42a8      	cmp	r0, r5
 800124e:	f101 0101 	add.w	r1, r1, #1
 8001252:	dbf6      	blt.n	8001242 <PutDgt_LCD+0x3a>
 8001254:	2000      	movs	r0, #0
 8001256:	429c      	cmp	r4, r3
 8001258:	b2c1      	uxtb	r1, r0
 800125a:	f100 0001 	add.w	r0, r0, #1
 800125e:	d210      	bcs.n	8001282 <PutDgt_LCD+0x7a>
 8001260:	b191      	cbz	r1, 8001288 <PutDgt_LCD+0x80>
 8001262:	f04f 0901 	mov.w	r9, #1
 8001266:	3130      	adds	r1, #48	; 0x30
 8001268:	b2c9      	uxtb	r1, r1
 800126a:	063a      	lsls	r2, r7, #24
 800126c:	d504      	bpl.n	8001278 <PutDgt_LCD+0x70>
 800126e:	f898 3000 	ldrb.w	r3, [r8]
 8001272:	075b      	lsls	r3, r3, #29
 8001274:	bf48      	it	mi
 8001276:	2120      	movmi	r1, #32
 8001278:	2000      	movs	r0, #0
 800127a:	f7ff ff2b 	bl	80010d4 <PutChr_LCD>
 800127e:	462a      	mov	r2, r5
 8001280:	e7d9      	b.n	8001236 <PutDgt_LCD+0x2e>
 8001282:	1ae4      	subs	r4, r4, r3
 8001284:	b2a4      	uxth	r4, r4
 8001286:	e7e6      	b.n	8001256 <PutDgt_LCD+0x4e>
 8001288:	f1b9 0f00 	cmp.w	r9, #0
 800128c:	d106      	bne.n	800129c <PutDgt_LCD+0x94>
 800128e:	2e30      	cmp	r6, #48	; 0x30
 8001290:	d006      	beq.n	80012a0 <PutDgt_LCD+0x98>
 8001292:	2a01      	cmp	r2, #1
 8001294:	bf0c      	ite	eq
 8001296:	2130      	moveq	r1, #48	; 0x30
 8001298:	2120      	movne	r1, #32
 800129a:	e7e6      	b.n	800126a <PutDgt_LCD+0x62>
 800129c:	2130      	movs	r1, #48	; 0x30
 800129e:	e7e4      	b.n	800126a <PutDgt_LCD+0x62>
 80012a0:	4631      	mov	r1, r6
 80012a2:	e7e2      	b.n	800126a <PutDgt_LCD+0x62>
 80012a4:	e8bd 83f8 	ldmia.w	sp!, {r3, r4, r5, r6, r7, r8, r9, pc}
 80012a8:	20000641 	.word	0x20000641

080012ac <StartUp>:
 80012ac:	b508      	push	{r3, lr}
 80012ae:	f7ff fa89 	bl	80007c4 <Init>
 80012b2:	480b      	ldr	r0, [pc, #44]	; (80012e0 <StartUp+0x34>)
 80012b4:	f7ff ff08 	bl	80010c8 <delay_LCD>
 80012b8:	f7ff ff50 	bl	800115c <InitLCD>
 80012bc:	f7ff f8bc 	bl	8000438 <InitSamplesLookUpTable>
 80012c0:	4b08      	ldr	r3, [pc, #32]	; (80012e4 <StartUp+0x38>)
 80012c2:	781a      	ldrb	r2, [r3, #0]
 80012c4:	f36f 0200 	bfc	r2, #0, #1
 80012c8:	701a      	strb	r2, [r3, #0]
 80012ca:	2305      	movs	r3, #5
 80012cc:	4a06      	ldr	r2, [pc, #24]	; (80012e8 <StartUp+0x3c>)
 80012ce:	7013      	strb	r3, [r2, #0]
 80012d0:	4a06      	ldr	r2, [pc, #24]	; (80012ec <StartUp+0x40>)
 80012d2:	7013      	strb	r3, [r2, #0]
 80012d4:	4a06      	ldr	r2, [pc, #24]	; (80012f0 <StartUp+0x44>)
 80012d6:	7013      	strb	r3, [r2, #0]
 80012d8:	4a06      	ldr	r2, [pc, #24]	; (80012f4 <StartUp+0x48>)
 80012da:	4b07      	ldr	r3, [pc, #28]	; (80012f8 <StartUp+0x4c>)
 80012dc:	601a      	str	r2, [r3, #0]
 80012de:	bd08      	pop	{r3, pc}
 80012e0:	00023280 	.word	0x00023280
 80012e4:	200006bc 	.word	0x200006bc
 80012e8:	2000058a 	.word	0x2000058a
 80012ec:	20000584 	.word	0x20000584
 80012f0:	20000590 	.word	0x20000590
 80012f4:	40013800 	.word	0x40013800
 80012f8:	20000598 	.word	0x20000598

080012fc <Handle1KHz>:
 80012fc:	b5f8      	push	{r3, r4, r5, r6, r7, lr}
 80012fe:	7a03      	ldrb	r3, [r0, #8]
 8001300:	07da      	lsls	r2, r3, #31
 8001302:	d515      	bpl.n	8001330 <Handle1KHz+0x34>
 8001304:	4d0b      	ldr	r5, [pc, #44]	; (8001334 <Handle1KHz+0x38>)
 8001306:	2400      	movs	r4, #0
 8001308:	462e      	mov	r6, r5
 800130a:	f36f 0300 	bfc	r3, #0, #1
 800130e:	4f0a      	ldr	r7, [pc, #40]	; (8001338 <Handle1KHz+0x3c>)
 8001310:	7203      	strb	r3, [r0, #8]
 8001312:	f995 3000 	ldrsb.w	r3, [r5]
 8001316:	2b00      	cmp	r3, #0
 8001318:	da03      	bge.n	8001322 <Handle1KHz+0x26>
 800131a:	1938      	adds	r0, r7, r4
 800131c:	f7ff fc46 	bl	8000bac <HandleKey>
 8001320:	7028      	strb	r0, [r5, #0]
 8001322:	f996 3000 	ldrsb.w	r3, [r6]
 8001326:	2b00      	cmp	r3, #0
 8001328:	da02      	bge.n	8001330 <Handle1KHz+0x34>
 800132a:	3424      	adds	r4, #36	; 0x24
 800132c:	2c90      	cmp	r4, #144	; 0x90
 800132e:	d1f0      	bne.n	8001312 <Handle1KHz+0x16>
 8001330:	bdf8      	pop	{r3, r4, r5, r6, r7, pc}
 8001332:	bf00      	nop
 8001334:	200005ac 	.word	0x200005ac
 8001338:	200005b0 	.word	0x200005b0

0800133c <Handle100Hz>:
 800133c:	7a03      	ldrb	r3, [r0, #8]
 800133e:	079a      	lsls	r2, r3, #30
 8001340:	d50b      	bpl.n	800135a <Handle100Hz+0x1e>
 8001342:	f36f 0341 	bfc	r3, #1, #1
 8001346:	7203      	strb	r3, [r0, #8]
 8001348:	4b0a      	ldr	r3, [pc, #40]	; (8001374 <Handle100Hz+0x38>)
 800134a:	781a      	ldrb	r2, [r3, #0]
 800134c:	2a01      	cmp	r2, #1
 800134e:	d009      	beq.n	8001364 <Handle100Hz+0x28>
 8001350:	d304      	bcc.n	800135c <Handle100Hz+0x20>
 8001352:	2a02      	cmp	r2, #2
 8001354:	d00a      	beq.n	800136c <Handle100Hz+0x30>
 8001356:	2200      	movs	r2, #0
 8001358:	701a      	strb	r2, [r3, #0]
 800135a:	4770      	bx	lr
 800135c:	4906      	ldr	r1, [pc, #24]	; (8001378 <Handle100Hz+0x3c>)
 800135e:	4807      	ldr	r0, [pc, #28]	; (800137c <Handle100Hz+0x40>)
 8001360:	f000 b8be 	b.w	80014e0 <HandleMainModes>
 8001364:	4904      	ldr	r1, [pc, #16]	; (8001378 <Handle100Hz+0x3c>)
 8001366:	4806      	ldr	r0, [pc, #24]	; (8001380 <Handle100Hz+0x44>)
 8001368:	f000 b90a 	b.w	8001580 <HandleServiceModes>
 800136c:	4902      	ldr	r1, [pc, #8]	; (8001378 <Handle100Hz+0x3c>)
 800136e:	4805      	ldr	r0, [pc, #20]	; (8001384 <Handle100Hz+0x48>)
 8001370:	f000 b944 	b.w	80015fc <HandleSupportModes>
 8001374:	20000640 	.word	0x20000640
 8001378:	200005ac 	.word	0x200005ac
 800137c:	20000645 	.word	0x20000645
 8001380:	20000643 	.word	0x20000643
 8001384:	20000646 	.word	0x20000646

08001388 <Handle25Hz>:
 8001388:	b530      	push	{r4, r5, lr}
 800138a:	7a03      	ldrb	r3, [r0, #8]
 800138c:	b0a1      	sub	sp, #132	; 0x84
 800138e:	075a      	lsls	r2, r3, #29
 8001390:	d50d      	bpl.n	80013ae <Handle25Hz+0x26>
 8001392:	4a1e      	ldr	r2, [pc, #120]	; (800140c <Handle25Hz+0x84>)
 8001394:	f36f 0382 	bfc	r3, #2, #1
 8001398:	7203      	strb	r3, [r0, #8]
 800139a:	8813      	ldrh	r3, [r2, #0]
 800139c:	2b05      	cmp	r3, #5
 800139e:	d808      	bhi.n	80013b2 <Handle25Hz+0x2a>
 80013a0:	3301      	adds	r3, #1
 80013a2:	8013      	strh	r3, [r2, #0]
 80013a4:	4a1a      	ldr	r2, [pc, #104]	; (8001410 <Handle25Hz+0x88>)
 80013a6:	6893      	ldr	r3, [r2, #8]
 80013a8:	f443 1300 	orr.w	r3, r3, #2097152	; 0x200000
 80013ac:	6093      	str	r3, [r2, #8]
 80013ae:	b021      	add	sp, #132	; 0x84
 80013b0:	bd30      	pop	{r4, r5, pc}
 80013b2:	2400      	movs	r4, #0
 80013b4:	8014      	strh	r4, [r2, #0]
 80013b6:	4a17      	ldr	r2, [pc, #92]	; (8001414 <Handle25Hz+0x8c>)
 80013b8:	4d17      	ldr	r5, [pc, #92]	; (8001418 <Handle25Hz+0x90>)
 80013ba:	7813      	ldrb	r3, [r2, #0]
 80013bc:	4621      	mov	r1, r4
 80013be:	f043 0301 	orr.w	r3, r3, #1
 80013c2:	6e68      	ldr	r0, [r5, #100]	; 0x64
 80013c4:	7013      	strb	r3, [r2, #0]
 80013c6:	f000 f936 	bl	8001636 <CalculateRoomTemperature>
 80013ca:	66a8      	str	r0, [r5, #104]	; 0x68
 80013cc:	4d13      	ldr	r5, [pc, #76]	; (800141c <Handle25Hz+0x94>)
 80013ce:	4621      	mov	r1, r4
 80013d0:	2319      	movs	r3, #25
 80013d2:	f240 1213 	movw	r2, #275	; 0x113
 80013d6:	6e68      	ldr	r0, [r5, #100]	; 0x64
 80013d8:	f000 f93f 	bl	800165a <CalculateTemperature>
 80013dc:	4c10      	ldr	r4, [pc, #64]	; (8001420 <Handle25Hz+0x98>)
 80013de:	66a8      	str	r0, [r5, #104]	; 0x68
 80013e0:	6ea1      	ldr	r1, [r4, #104]	; 0x68
 80013e2:	f44f 737a 	mov.w	r3, #1000	; 0x3e8
 80013e6:	f640 32b8 	movw	r2, #3000	; 0xbb8
 80013ea:	6e60      	ldr	r0, [r4, #100]	; 0x64
 80013ec:	f000 f94c 	bl	8001688 <CalculatePressure>
 80013f0:	4b0c      	ldr	r3, [pc, #48]	; (8001424 <Handle25Hz+0x9c>)
 80013f2:	66a0      	str	r0, [r4, #104]	; 0x68
 80013f4:	f993 2000 	ldrsb.w	r2, [r3]
 80013f8:	490b      	ldr	r1, [pc, #44]	; (8001428 <Handle25Hz+0xa0>)
 80013fa:	4668      	mov	r0, sp
 80013fc:	f000 fb40 	bl	8001a80 <siprintf>
 8001400:	4669      	mov	r1, sp
 8001402:	4602      	mov	r2, r0
 8001404:	4809      	ldr	r0, [pc, #36]	; (800142c <Handle25Hz+0xa4>)
 8001406:	f7ff f883 	bl	8000510 <SendData_USART>
 800140a:	e7cb      	b.n	80013a4 <Handle25Hz+0x1c>
 800140c:	20000034 	.word	0x20000034
 8001410:	40012400 	.word	0x40012400
 8001414:	20000641 	.word	0x20000641
 8001418:	20000514 	.word	0x20000514
 800141c:	20000434 	.word	0x20000434
 8001420:	200004a4 	.word	0x200004a4
 8001424:	200005ac 	.word	0x200005ac
 8001428:	08002340 	.word	0x08002340
 800142c:	20000598 	.word	0x20000598

08001430 <HandleSecond>:
 8001430:	7a03      	ldrb	r3, [r0, #8]
 8001432:	071a      	lsls	r2, r3, #28
 8001434:	bf44      	itt	mi
 8001436:	f36f 03c3 	bfcmi	r3, #3, #1
 800143a:	7203      	strbmi	r3, [r0, #8]
 800143c:	4770      	bx	lr
	...

08001440 <main>:
 8001440:	b508      	push	{r3, lr}
 8001442:	f7ff ff33 	bl	80012ac <StartUp>
 8001446:	4c08      	ldr	r4, [pc, #32]	; (8001468 <main+0x28>)
 8001448:	f7fe fed6 	bl	80001f8 <IWDG_ReloadCounter>
 800144c:	4620      	mov	r0, r4
 800144e:	f7ff ff55 	bl	80012fc <Handle1KHz>
 8001452:	4620      	mov	r0, r4
 8001454:	f7ff ff72 	bl	800133c <Handle100Hz>
 8001458:	4620      	mov	r0, r4
 800145a:	f7ff ff95 	bl	8001388 <Handle25Hz>
 800145e:	4620      	mov	r0, r4
 8001460:	f7ff ffe6 	bl	8001430 <HandleSecond>
 8001464:	e7f0      	b.n	8001448 <main+0x8>
 8001466:	bf00      	nop
 8001468:	200006b2 	.word	0x200006b2

0800146c <ChangeToMainModeType>:
 800146c:	2300      	movs	r3, #0
 800146e:	700b      	strb	r3, [r1, #0]
 8001470:	7002      	strb	r2, [r0, #0]
 8001472:	4770      	bx	lr

08001474 <ChangeToServiceModeType>:
 8001474:	2301      	movs	r3, #1
 8001476:	700b      	strb	r3, [r1, #0]
 8001478:	7002      	strb	r2, [r0, #0]
 800147a:	4770      	bx	lr

0800147c <Title>:
 800147c:	4b0d      	ldr	r3, [pc, #52]	; (80014b4 <Title+0x38>)
 800147e:	f893 2044 	ldrb.w	r2, [r3, #68]	; 0x44
 8001482:	07d2      	lsls	r2, r2, #31
 8001484:	d50b      	bpl.n	800149e <Title+0x22>
 8001486:	f893 3068 	ldrb.w	r3, [r3, #104]	; 0x68
 800148a:	07db      	lsls	r3, r3, #31
 800148c:	d507      	bpl.n	800149e <Title+0x22>
 800148e:	2202      	movs	r2, #2
 8001490:	4b09      	ldr	r3, [pc, #36]	; (80014b8 <Title+0x3c>)
 8001492:	701a      	strb	r2, [r3, #0]
 8001494:	2200      	movs	r2, #0
 8001496:	4b09      	ldr	r3, [pc, #36]	; (80014bc <Title+0x40>)
 8001498:	701a      	strb	r2, [r3, #0]
 800149a:	f7ff be53 	b.w	8001144 <PutClear_LCD>
 800149e:	4a08      	ldr	r2, [pc, #32]	; (80014c0 <Title+0x44>)
 80014a0:	8813      	ldrh	r3, [r2, #0]
 80014a2:	3301      	adds	r3, #1
 80014a4:	b29b      	uxth	r3, r3
 80014a6:	f5b3 7fc8 	cmp.w	r3, #400	; 0x190
 80014aa:	8013      	strh	r3, [r2, #0]
 80014ac:	bf24      	itt	cs
 80014ae:	2301      	movcs	r3, #1
 80014b0:	7003      	strbcs	r3, [r0, #0]
 80014b2:	4770      	bx	lr
 80014b4:	200005b0 	.word	0x200005b0
 80014b8:	20000640 	.word	0x20000640
 80014bc:	20000646 	.word	0x20000646
 80014c0:	20000036 	.word	0x20000036

080014c4 <Entry>:
 80014c4:	4b05      	ldr	r3, [pc, #20]	; (80014dc <Entry+0x18>)
 80014c6:	b510      	push	{r4, lr}
 80014c8:	781b      	ldrb	r3, [r3, #0]
 80014ca:	4604      	mov	r4, r0
 80014cc:	07db      	lsls	r3, r3, #31
 80014ce:	d503      	bpl.n	80014d8 <Entry+0x14>
 80014d0:	f7ff fe38 	bl	8001144 <PutClear_LCD>
 80014d4:	2309      	movs	r3, #9
 80014d6:	7023      	strb	r3, [r4, #0]
 80014d8:	bd10      	pop	{r4, pc}
 80014da:	bf00      	nop
 80014dc:	200006bc 	.word	0x200006bc

080014e0 <HandleMainModes>:
 80014e0:	f991 3000 	ldrsb.w	r3, [r1]
 80014e4:	b570      	push	{r4, r5, r6, lr}
 80014e6:	2b00      	cmp	r3, #0
 80014e8:	4605      	mov	r5, r0
 80014ea:	460e      	mov	r6, r1
 80014ec:	4c21      	ldr	r4, [pc, #132]	; (8001574 <HandleMainModes+0x94>)
 80014ee:	db12      	blt.n	8001516 <HandleMainModes+0x36>
 80014f0:	7823      	ldrb	r3, [r4, #0]
 80014f2:	f043 0301 	orr.w	r3, r3, #1
 80014f6:	7023      	strb	r3, [r4, #0]
 80014f8:	7823      	ldrb	r3, [r4, #0]
 80014fa:	f003 03fb 	and.w	r3, r3, #251	; 0xfb
 80014fe:	7023      	strb	r3, [r4, #0]
 8001500:	7802      	ldrb	r2, [r0, #0]
 8001502:	f991 3000 	ldrsb.w	r3, [r1]
 8001506:	eb03 03c2 	add.w	r3, r3, r2, lsl #3
 800150a:	4a1b      	ldr	r2, [pc, #108]	; (8001578 <HandleMainModes+0x98>)
 800150c:	f852 3023 	ldr.w	r3, [r2, r3, lsl #2]
 8001510:	4798      	blx	r3
 8001512:	23ff      	movs	r3, #255	; 0xff
 8001514:	7033      	strb	r3, [r6, #0]
 8001516:	782b      	ldrb	r3, [r5, #0]
 8001518:	2b0c      	cmp	r3, #12
 800151a:	d826      	bhi.n	800156a <HandleMainModes+0x8a>
 800151c:	e8df f003 	tbb	[pc, r3]
 8001520:	0a0a2107 	.word	0x0a0a2107
 8001524:	0a0a0a0a 	.word	0x0a0a0a0a
 8001528:	0a0a0a0a 	.word	0x0a0a0a0a
 800152c:	0a          	.byte	0x0a
 800152d:	00          	.byte	0x00
 800152e:	4628      	mov	r0, r5
 8001530:	f7ff ffa4 	bl	800147c <Title>
 8001534:	7823      	ldrb	r3, [r4, #0]
 8001536:	07da      	lsls	r2, r3, #31
 8001538:	d51a      	bpl.n	8001570 <HandleMainModes+0x90>
 800153a:	7823      	ldrb	r3, [r4, #0]
 800153c:	f003 03fe 	and.w	r3, r3, #254	; 0xfe
 8001540:	7023      	strb	r3, [r4, #0]
 8001542:	7823      	ldrb	r3, [r4, #0]
 8001544:	079b      	lsls	r3, r3, #30
 8001546:	d505      	bpl.n	8001554 <HandleMainModes+0x74>
 8001548:	7823      	ldrb	r3, [r4, #0]
 800154a:	f003 03fd 	and.w	r3, r3, #253	; 0xfd
 800154e:	7023      	strb	r3, [r4, #0]
 8001550:	f7ff fdf8 	bl	8001144 <PutClear_LCD>
 8001554:	782a      	ldrb	r2, [r5, #0]
 8001556:	4b09      	ldr	r3, [pc, #36]	; (800157c <HandleMainModes+0x9c>)
 8001558:	e8bd 4070 	ldmia.w	sp!, {r4, r5, r6, lr}
 800155c:	f853 3022 	ldr.w	r3, [r3, r2, lsl #2]
 8001560:	4718      	bx	r3
 8001562:	4628      	mov	r0, r5
 8001564:	f7ff ffae 	bl	80014c4 <Entry>
 8001568:	e7e4      	b.n	8001534 <HandleMainModes+0x54>
 800156a:	2300      	movs	r3, #0
 800156c:	702b      	strb	r3, [r5, #0]
 800156e:	e7e1      	b.n	8001534 <HandleMainModes+0x54>
 8001570:	bd70      	pop	{r4, r5, r6, pc}
 8001572:	bf00      	nop
 8001574:	20000641 	.word	0x20000641
 8001578:	0800217c 	.word	0x0800217c
 800157c:	08001fd4 	.word	0x08001fd4

08001580 <HandleServiceModes>:
 8001580:	f991 3000 	ldrsb.w	r3, [r1]
 8001584:	b570      	push	{r4, r5, r6, lr}
 8001586:	2b00      	cmp	r3, #0
 8001588:	4605      	mov	r5, r0
 800158a:	460e      	mov	r6, r1
 800158c:	4c18      	ldr	r4, [pc, #96]	; (80015f0 <HandleServiceModes+0x70>)
 800158e:	db12      	blt.n	80015b6 <HandleServiceModes+0x36>
 8001590:	7823      	ldrb	r3, [r4, #0]
 8001592:	f043 0301 	orr.w	r3, r3, #1
 8001596:	7023      	strb	r3, [r4, #0]
 8001598:	7823      	ldrb	r3, [r4, #0]
 800159a:	f003 03fb 	and.w	r3, r3, #251	; 0xfb
 800159e:	7023      	strb	r3, [r4, #0]
 80015a0:	7802      	ldrb	r2, [r0, #0]
 80015a2:	f991 3000 	ldrsb.w	r3, [r1]
 80015a6:	eb03 03c2 	add.w	r3, r3, r2, lsl #3
 80015aa:	4a12      	ldr	r2, [pc, #72]	; (80015f4 <HandleServiceModes+0x74>)
 80015ac:	f852 3023 	ldr.w	r3, [r2, r3, lsl #2]
 80015b0:	4798      	blx	r3
 80015b2:	23ff      	movs	r3, #255	; 0xff
 80015b4:	7033      	strb	r3, [r6, #0]
 80015b6:	782b      	ldrb	r3, [r5, #0]
 80015b8:	2b08      	cmp	r3, #8
 80015ba:	bf84      	itt	hi
 80015bc:	2300      	movhi	r3, #0
 80015be:	702b      	strbhi	r3, [r5, #0]
 80015c0:	7823      	ldrb	r3, [r4, #0]
 80015c2:	07da      	lsls	r2, r3, #31
 80015c4:	d513      	bpl.n	80015ee <HandleServiceModes+0x6e>
 80015c6:	7823      	ldrb	r3, [r4, #0]
 80015c8:	f003 03fe 	and.w	r3, r3, #254	; 0xfe
 80015cc:	7023      	strb	r3, [r4, #0]
 80015ce:	7823      	ldrb	r3, [r4, #0]
 80015d0:	079b      	lsls	r3, r3, #30
 80015d2:	d505      	bpl.n	80015e0 <HandleServiceModes+0x60>
 80015d4:	7823      	ldrb	r3, [r4, #0]
 80015d6:	f003 03fd 	and.w	r3, r3, #253	; 0xfd
 80015da:	7023      	strb	r3, [r4, #0]
 80015dc:	f7ff fdb2 	bl	8001144 <PutClear_LCD>
 80015e0:	782a      	ldrb	r2, [r5, #0]
 80015e2:	4b05      	ldr	r3, [pc, #20]	; (80015f8 <HandleServiceModes+0x78>)
 80015e4:	e8bd 4070 	ldmia.w	sp!, {r4, r5, r6, lr}
 80015e8:	f853 3022 	ldr.w	r3, [r3, r2, lsl #2]
 80015ec:	4718      	bx	r3
 80015ee:	bd70      	pop	{r4, r5, r6, pc}
 80015f0:	20000641 	.word	0x20000641
 80015f4:	080021dc 	.word	0x080021dc
 80015f8:	08001fe4 	.word	0x08001fe4

080015fc <HandleSupportModes>:
 80015fc:	7803      	ldrb	r3, [r0, #0]
 80015fe:	2b0c      	cmp	r3, #12
 8001600:	bf84      	itt	hi
 8001602:	2300      	movhi	r3, #0
 8001604:	7003      	strbhi	r3, [r0, #0]
 8001606:	4770      	bx	lr

08001608 <GetAverageValue>:
 8001608:	b510      	push	{r4, lr}
 800160a:	780b      	ldrb	r3, [r1, #0]
 800160c:	2b18      	cmp	r3, #24
 800160e:	bf84      	itt	hi
 8001610:	2300      	movhi	r3, #0
 8001612:	700b      	strbhi	r3, [r1, #0]
 8001614:	780b      	ldrb	r3, [r1, #0]
 8001616:	1c5c      	adds	r4, r3, #1
 8001618:	700c      	strb	r4, [r1, #0]
 800161a:	f840 2023 	str.w	r2, [r0, r3, lsl #2]
 800161e:	2300      	movs	r3, #0
 8001620:	1f02      	subs	r2, r0, #4
 8001622:	3060      	adds	r0, #96	; 0x60
 8001624:	f852 1f04 	ldr.w	r1, [r2, #4]!
 8001628:	4290      	cmp	r0, r2
 800162a:	440b      	add	r3, r1
 800162c:	d1fa      	bne.n	8001624 <GetAverageValue+0x1c>
 800162e:	2019      	movs	r0, #25
 8001630:	fbb3 f0f0 	udiv	r0, r3, r0
 8001634:	bd10      	pop	{r4, pc}

08001636 <CalculateRoomTemperature>:
 8001636:	230a      	movs	r3, #10
 8001638:	f5a0 20f4 	sub.w	r0, r0, #499712	; 0x7a000
 800163c:	f5a0 7090 	sub.w	r0, r0, #288	; 0x120
 8001640:	fbb0 f3f3 	udiv	r3, r0, r3
 8001644:	f44f 707a 	mov.w	r0, #1000	; 0x3e8
 8001648:	4358      	muls	r0, r3
 800164a:	2896      	cmp	r0, #150	; 0x96
 800164c:	d803      	bhi.n	8001656 <CalculateRoomTemperature+0x20>
 800164e:	4288      	cmp	r0, r1
 8001650:	d902      	bls.n	8001658 <CalculateRoomTemperature+0x22>
 8001652:	1a40      	subs	r0, r0, r1
 8001654:	4770      	bx	lr
 8001656:	2000      	movs	r0, #0
 8001658:	4770      	bx	lr

0800165a <CalculateTemperature>:
 800165a:	b570      	push	{r4, r5, r6, lr}
 800165c:	4605      	mov	r5, r0
 800165e:	428d      	cmp	r5, r1
 8001660:	460e      	mov	r6, r1
 8001662:	4614      	mov	r4, r2
 8001664:	4618      	mov	r0, r3
 8001666:	d90e      	bls.n	8001686 <CalculateTemperature+0x2c>
 8001668:	1bad      	subs	r5, r5, r6
 800166a:	f7fe fefb 	bl	8000464 <DegreeToSample>
 800166e:	b2aa      	uxth	r2, r5
 8001670:	4354      	muls	r4, r2
 8001672:	22dc      	movs	r2, #220	; 0xdc
 8001674:	fbb4 f4f2 	udiv	r4, r4, r2
 8001678:	b280      	uxth	r0, r0
 800167a:	b2a4      	uxth	r4, r4
 800167c:	4420      	add	r0, r4
 800167e:	e8bd 4070 	ldmia.w	sp!, {r4, r5, r6, lr}
 8001682:	f7fe befb 	b.w	800047c <SampleToDegree>
 8001686:	bd70      	pop	{r4, r5, r6, pc}

08001688 <CalculatePressure>:
 8001688:	b510      	push	{r4, lr}
 800168a:	1ad4      	subs	r4, r2, r3
 800168c:	f649 4240 	movw	r2, #40000	; 0x9c40
 8001690:	fbb2 f2f4 	udiv	r2, r2, r4
 8001694:	f644 6420 	movw	r4, #20000	; 0x4e20
 8001698:	fb02 4313 	mls	r3, r2, r3, r4
 800169c:	4418      	add	r0, r3
 800169e:	4342      	muls	r2, r0
 80016a0:	d408      	bmi.n	80016b4 <CalculatePressure+0x2c>
 80016a2:	f44f 707a 	mov.w	r0, #1000	; 0x3e8
 80016a6:	fb92 f2f0 	sdiv	r2, r2, r0
 80016aa:	4b0a      	ldr	r3, [pc, #40]	; (80016d4 <CalculatePressure+0x4c>)
 80016ac:	b292      	uxth	r2, r2
 80016ae:	6818      	ldr	r0, [r3, #0]
 80016b0:	4402      	add	r2, r0
 80016b2:	601a      	str	r2, [r3, #0]
 80016b4:	4a08      	ldr	r2, [pc, #32]	; (80016d8 <CalculatePressure+0x50>)
 80016b6:	7813      	ldrb	r3, [r2, #0]
 80016b8:	3301      	adds	r3, #1
 80016ba:	b2db      	uxtb	r3, r3
 80016bc:	2b03      	cmp	r3, #3
 80016be:	bf85      	ittet	hi
 80016c0:	2100      	movhi	r1, #0
 80016c2:	4b04      	ldrhi	r3, [pc, #16]	; (80016d4 <CalculatePressure+0x4c>)
 80016c4:	4608      	movls	r0, r1
 80016c6:	6818      	ldrhi	r0, [r3, #0]
 80016c8:	bf91      	iteee	ls
 80016ca:	7013      	strbls	r3, [r2, #0]
 80016cc:	7011      	strbhi	r1, [r2, #0]
 80016ce:	0880      	lsrhi	r0, r0, #2
 80016d0:	6019      	strhi	r1, [r3, #0]
 80016d2:	bd10      	pop	{r4, pc}
 80016d4:	2000003c 	.word	0x2000003c
 80016d8:	20000038 	.word	0x20000038

080016dc <Reset_Handler>:
 80016dc:	f8df d034 	ldr.w	sp, [pc, #52]	; 8001714 <LoopFillZerobss+0x14>
 80016e0:	2100      	movs	r1, #0
 80016e2:	e003      	b.n	80016ec <LoopCopyDataInit>

080016e4 <CopyDataInit>:
 80016e4:	4b0c      	ldr	r3, [pc, #48]	; (8001718 <LoopFillZerobss+0x18>)
 80016e6:	585b      	ldr	r3, [r3, r1]
 80016e8:	5043      	str	r3, [r0, r1]
 80016ea:	3104      	adds	r1, #4

080016ec <LoopCopyDataInit>:
 80016ec:	480b      	ldr	r0, [pc, #44]	; (800171c <LoopFillZerobss+0x1c>)
 80016ee:	4b0c      	ldr	r3, [pc, #48]	; (8001720 <LoopFillZerobss+0x20>)
 80016f0:	1842      	adds	r2, r0, r1
 80016f2:	429a      	cmp	r2, r3
 80016f4:	d3f6      	bcc.n	80016e4 <CopyDataInit>
 80016f6:	4a0b      	ldr	r2, [pc, #44]	; (8001724 <LoopFillZerobss+0x24>)
 80016f8:	e002      	b.n	8001700 <LoopFillZerobss>

080016fa <FillZerobss>:
 80016fa:	2300      	movs	r3, #0
 80016fc:	f842 3b04 	str.w	r3, [r2], #4

08001700 <LoopFillZerobss>:
 8001700:	4b09      	ldr	r3, [pc, #36]	; (8001728 <LoopFillZerobss+0x28>)
 8001702:	429a      	cmp	r2, r3
 8001704:	d3f9      	bcc.n	80016fa <FillZerobss>
 8001706:	f000 f8c7 	bl	8001898 <SystemInit>
 800170a:	f000 f9c7 	bl	8001a9c <__libc_init_array>
 800170e:	f7ff fe97 	bl	8001440 <main>
 8001712:	4770      	bx	lr
 8001714:	20005000 	.word	0x20005000
 8001718:	08002368 	.word	0x08002368
 800171c:	20000000 	.word	0x20000000
 8001720:	20000018 	.word	0x20000018
 8001724:	20000018 	.word	0x20000018
 8001728:	200006c0 	.word	0x200006c0

0800172c <CAN1_RX1_IRQHandler>:
 800172c:	e7fe      	b.n	800172c <CAN1_RX1_IRQHandler>

0800172e <NMI_Handler>:
 800172e:	4770      	bx	lr

08001730 <HardFault_Handler>:
 8001730:	e7fe      	b.n	8001730 <HardFault_Handler>

08001732 <MemManage_Handler>:
 8001732:	e7fe      	b.n	8001732 <MemManage_Handler>

08001734 <BusFault_Handler>:
 8001734:	e7fe      	b.n	8001734 <BusFault_Handler>

08001736 <UsageFault_Handler>:
 8001736:	e7fe      	b.n	8001736 <UsageFault_Handler>

08001738 <SVC_Handler>:
 8001738:	4770      	bx	lr

0800173a <DebugMon_Handler>:
 800173a:	4770      	bx	lr

0800173c <PendSV_Handler>:
 800173c:	4770      	bx	lr
	...

08001740 <SysTick_Handler>:
 8001740:	4b28      	ldr	r3, [pc, #160]	; (80017e4 <SysTick_Handler+0xa4>)
 8001742:	7a1a      	ldrb	r2, [r3, #8]
 8001744:	f042 0201 	orr.w	r2, r2, #1
 8001748:	721a      	strb	r2, [r3, #8]
 800174a:	885a      	ldrh	r2, [r3, #2]
 800174c:	2a09      	cmp	r2, #9
 800174e:	bf83      	ittte	hi
 8001750:	2200      	movhi	r2, #0
 8001752:	805a      	strhhi	r2, [r3, #2]
 8001754:	7a1a      	ldrbhi	r2, [r3, #8]
 8001756:	3201      	addls	r2, #1
 8001758:	bf86      	itte	hi
 800175a:	f042 0202 	orrhi.w	r2, r2, #2
 800175e:	721a      	strbhi	r2, [r3, #8]
 8001760:	805a      	strhls	r2, [r3, #2]
 8001762:	889a      	ldrh	r2, [r3, #4]
 8001764:	2a27      	cmp	r2, #39	; 0x27
 8001766:	bf83      	ittte	hi
 8001768:	2200      	movhi	r2, #0
 800176a:	809a      	strhhi	r2, [r3, #4]
 800176c:	7a1a      	ldrbhi	r2, [r3, #8]
 800176e:	3201      	addls	r2, #1
 8001770:	bf86      	itte	hi
 8001772:	f042 0204 	orrhi.w	r2, r2, #4
 8001776:	721a      	strbhi	r2, [r3, #8]
 8001778:	809a      	strhls	r2, [r3, #4]
 800177a:	881a      	ldrh	r2, [r3, #0]
 800177c:	f5b2 7f7a 	cmp.w	r2, #1000	; 0x3e8
 8001780:	bf23      	ittte	cs
 8001782:	2200      	movcs	r2, #0
 8001784:	801a      	strhcs	r2, [r3, #0]
 8001786:	7a1a      	ldrbcs	r2, [r3, #8]
 8001788:	3201      	addcc	r2, #1
 800178a:	bf2a      	itet	cs
 800178c:	f042 0208 	orrcs.w	r2, r2, #8
 8001790:	801a      	strhcc	r2, [r3, #0]
 8001792:	721a      	strbcs	r2, [r3, #8]
 8001794:	4a14      	ldr	r2, [pc, #80]	; (80017e8 <SysTick_Handler+0xa8>)
 8001796:	f892 1020 	ldrb.w	r1, [r2, #32]
 800179a:	07c9      	lsls	r1, r1, #31
 800179c:	d40b      	bmi.n	80017b6 <SysTick_Handler+0x76>
 800179e:	f892 1044 	ldrb.w	r1, [r2, #68]	; 0x44
 80017a2:	07c8      	lsls	r0, r1, #31
 80017a4:	d407      	bmi.n	80017b6 <SysTick_Handler+0x76>
 80017a6:	f892 1068 	ldrb.w	r1, [r2, #104]	; 0x68
 80017aa:	07c9      	lsls	r1, r1, #31
 80017ac:	d403      	bmi.n	80017b6 <SysTick_Handler+0x76>
 80017ae:	f892 208c 	ldrb.w	r2, [r2, #140]	; 0x8c
 80017b2:	07d2      	lsls	r2, r2, #31
 80017b4:	d506      	bpl.n	80017c4 <SysTick_Handler+0x84>
 80017b6:	2200      	movs	r2, #0
 80017b8:	490c      	ldr	r1, [pc, #48]	; (80017ec <SysTick_Handler+0xac>)
 80017ba:	80da      	strh	r2, [r3, #6]
 80017bc:	780a      	ldrb	r2, [r1, #0]
 80017be:	f002 02fb 	and.w	r2, r2, #251	; 0xfb
 80017c2:	700a      	strb	r2, [r1, #0]
 80017c4:	88da      	ldrh	r2, [r3, #6]
 80017c6:	f5b2 7f7a 	cmp.w	r2, #1000	; 0x3e8
 80017ca:	bf23      	ittte	cs
 80017cc:	2200      	movcs	r2, #0
 80017ce:	80da      	strhcs	r2, [r3, #6]
 80017d0:	4a06      	ldrcs	r2, [pc, #24]	; (80017ec <SysTick_Handler+0xac>)
 80017d2:	3201      	addcc	r2, #1
 80017d4:	bf29      	itett	cs
 80017d6:	7813      	ldrbcs	r3, [r2, #0]
 80017d8:	80da      	strhcc	r2, [r3, #6]
 80017da:	f083 0304 	eorcs.w	r3, r3, #4
 80017de:	7013      	strbcs	r3, [r2, #0]
 80017e0:	4770      	bx	lr
 80017e2:	bf00      	nop
 80017e4:	200006b2 	.word	0x200006b2
 80017e8:	200005b0 	.word	0x200005b0
 80017ec:	20000641 	.word	0x20000641

080017f0 <ADC1_2_IRQHandler>:
 80017f0:	b538      	push	{r3, r4, r5, lr}
 80017f2:	4c18      	ldr	r4, [pc, #96]	; (8001854 <ADC1_2_IRQHandler+0x64>)
 80017f4:	6823      	ldr	r3, [r4, #0]
 80017f6:	075b      	lsls	r3, r3, #29
 80017f8:	d52a      	bpl.n	8001850 <ADC1_2_IRQHandler+0x60>
 80017fa:	6be1      	ldr	r1, [r4, #60]	; 0x3c
 80017fc:	4816      	ldr	r0, [pc, #88]	; (8001858 <ADC1_2_IRQHandler+0x68>)
 80017fe:	f7fe fe6f 	bl	80004e0 <DeadBand>
 8001802:	4d16      	ldr	r5, [pc, #88]	; (800185c <ADC1_2_IRQHandler+0x6c>)
 8001804:	4602      	mov	r2, r0
 8001806:	f105 016c 	add.w	r1, r5, #108	; 0x6c
 800180a:	4628      	mov	r0, r5
 800180c:	f7ff fefc 	bl	8001608 <GetAverageValue>
 8001810:	6668      	str	r0, [r5, #100]	; 0x64
 8001812:	6c21      	ldr	r1, [r4, #64]	; 0x40
 8001814:	4812      	ldr	r0, [pc, #72]	; (8001860 <ADC1_2_IRQHandler+0x70>)
 8001816:	f7fe fe63 	bl	80004e0 <DeadBand>
 800181a:	4d12      	ldr	r5, [pc, #72]	; (8001864 <ADC1_2_IRQHandler+0x74>)
 800181c:	4602      	mov	r2, r0
 800181e:	f105 016c 	add.w	r1, r5, #108	; 0x6c
 8001822:	4628      	mov	r0, r5
 8001824:	f7ff fef0 	bl	8001608 <GetAverageValue>
 8001828:	6668      	str	r0, [r5, #100]	; 0x64
 800182a:	6c61      	ldr	r1, [r4, #68]	; 0x44
 800182c:	480e      	ldr	r0, [pc, #56]	; (8001868 <ADC1_2_IRQHandler+0x78>)
 800182e:	f7fe fe57 	bl	80004e0 <DeadBand>
 8001832:	4d0e      	ldr	r5, [pc, #56]	; (800186c <ADC1_2_IRQHandler+0x7c>)
 8001834:	4602      	mov	r2, r0
 8001836:	f105 016c 	add.w	r1, r5, #108	; 0x6c
 800183a:	4628      	mov	r0, r5
 800183c:	f7ff fee4 	bl	8001608 <GetAverageValue>
 8001840:	6668      	str	r0, [r5, #100]	; 0x64
 8001842:	6c62      	ldr	r2, [r4, #68]	; 0x44
 8001844:	4b0a      	ldr	r3, [pc, #40]	; (8001870 <ADC1_2_IRQHandler+0x80>)
 8001846:	601a      	str	r2, [r3, #0]
 8001848:	6823      	ldr	r3, [r4, #0]
 800184a:	f023 0304 	bic.w	r3, r3, #4
 800184e:	6023      	str	r3, [r4, #0]
 8001850:	bd38      	pop	{r3, r4, r5, pc}
 8001852:	bf00      	nop
 8001854:	40012400 	.word	0x40012400
 8001858:	2000058a 	.word	0x2000058a
 800185c:	20000514 	.word	0x20000514
 8001860:	20000584 	.word	0x20000584
 8001864:	20000434 	.word	0x20000434
 8001868:	20000590 	.word	0x20000590
 800186c:	200004a4 	.word	0x200004a4
 8001870:	200005a8 	.word	0x200005a8

08001874 <USART1_IRQHandler>:
 8001874:	b508      	push	{r3, lr}
 8001876:	f240 7127 	movw	r1, #1831	; 0x727
 800187a:	4805      	ldr	r0, [pc, #20]	; (8001890 <USART1_IRQHandler+0x1c>)
 800187c:	f7fe fda0 	bl	80003c0 <USART_GetITStatus>
 8001880:	b120      	cbz	r0, 800188c <USART1_IRQHandler+0x18>
 8001882:	e8bd 4008 	ldmia.w	sp!, {r3, lr}
 8001886:	4803      	ldr	r0, [pc, #12]	; (8001894 <USART1_IRQHandler+0x20>)
 8001888:	f7fe be57 	b.w	800053a <SendData_IT>
 800188c:	bd08      	pop	{r3, pc}
 800188e:	bf00      	nop
 8001890:	40013800 	.word	0x40013800
 8001894:	20000598 	.word	0x20000598

08001898 <SystemInit>:
 8001898:	4b37      	ldr	r3, [pc, #220]	; (8001978 <SystemInit+0xe0>)
 800189a:	b082      	sub	sp, #8
 800189c:	681a      	ldr	r2, [r3, #0]
 800189e:	f042 0201 	orr.w	r2, r2, #1
 80018a2:	601a      	str	r2, [r3, #0]
 80018a4:	6859      	ldr	r1, [r3, #4]
 80018a6:	4a35      	ldr	r2, [pc, #212]	; (800197c <SystemInit+0xe4>)
 80018a8:	400a      	ands	r2, r1
 80018aa:	605a      	str	r2, [r3, #4]
 80018ac:	681a      	ldr	r2, [r3, #0]
 80018ae:	f022 7284 	bic.w	r2, r2, #17301504	; 0x1080000
 80018b2:	f422 3280 	bic.w	r2, r2, #65536	; 0x10000
 80018b6:	601a      	str	r2, [r3, #0]
 80018b8:	681a      	ldr	r2, [r3, #0]
 80018ba:	f422 2280 	bic.w	r2, r2, #262144	; 0x40000
 80018be:	601a      	str	r2, [r3, #0]
 80018c0:	685a      	ldr	r2, [r3, #4]
 80018c2:	f422 02fe 	bic.w	r2, r2, #8323072	; 0x7f0000
 80018c6:	605a      	str	r2, [r3, #4]
 80018c8:	f44f 021f 	mov.w	r2, #10420224	; 0x9f0000
 80018cc:	609a      	str	r2, [r3, #8]
 80018ce:	2200      	movs	r2, #0
 80018d0:	9200      	str	r2, [sp, #0]
 80018d2:	9201      	str	r2, [sp, #4]
 80018d4:	681a      	ldr	r2, [r3, #0]
 80018d6:	f442 3280 	orr.w	r2, r2, #65536	; 0x10000
 80018da:	601a      	str	r2, [r3, #0]
 80018dc:	681a      	ldr	r2, [r3, #0]
 80018de:	f402 3200 	and.w	r2, r2, #131072	; 0x20000
 80018e2:	9201      	str	r2, [sp, #4]
 80018e4:	9a00      	ldr	r2, [sp, #0]
 80018e6:	3201      	adds	r2, #1
 80018e8:	9200      	str	r2, [sp, #0]
 80018ea:	9a01      	ldr	r2, [sp, #4]
 80018ec:	b91a      	cbnz	r2, 80018f6 <SystemInit+0x5e>
 80018ee:	9a00      	ldr	r2, [sp, #0]
 80018f0:	f5b2 6fa0 	cmp.w	r2, #1280	; 0x500
 80018f4:	d1f2      	bne.n	80018dc <SystemInit+0x44>
 80018f6:	681a      	ldr	r2, [r3, #0]
 80018f8:	f412 3200 	ands.w	r2, r2, #131072	; 0x20000
 80018fc:	bf18      	it	ne
 80018fe:	2201      	movne	r2, #1
 8001900:	9201      	str	r2, [sp, #4]
 8001902:	9a01      	ldr	r2, [sp, #4]
 8001904:	2a01      	cmp	r2, #1
 8001906:	d005      	beq.n	8001914 <SystemInit+0x7c>
 8001908:	f04f 6200 	mov.w	r2, #134217728	; 0x8000000
 800190c:	4b1c      	ldr	r3, [pc, #112]	; (8001980 <SystemInit+0xe8>)
 800190e:	609a      	str	r2, [r3, #8]
 8001910:	b002      	add	sp, #8
 8001912:	4770      	bx	lr
 8001914:	4a1b      	ldr	r2, [pc, #108]	; (8001984 <SystemInit+0xec>)
 8001916:	6811      	ldr	r1, [r2, #0]
 8001918:	f041 0110 	orr.w	r1, r1, #16
 800191c:	6011      	str	r1, [r2, #0]
 800191e:	6811      	ldr	r1, [r2, #0]
 8001920:	f021 0103 	bic.w	r1, r1, #3
 8001924:	6011      	str	r1, [r2, #0]
 8001926:	6811      	ldr	r1, [r2, #0]
 8001928:	f041 0102 	orr.w	r1, r1, #2
 800192c:	6011      	str	r1, [r2, #0]
 800192e:	685a      	ldr	r2, [r3, #4]
 8001930:	605a      	str	r2, [r3, #4]
 8001932:	685a      	ldr	r2, [r3, #4]
 8001934:	605a      	str	r2, [r3, #4]
 8001936:	685a      	ldr	r2, [r3, #4]
 8001938:	f442 6280 	orr.w	r2, r2, #1024	; 0x400
 800193c:	605a      	str	r2, [r3, #4]
 800193e:	685a      	ldr	r2, [r3, #4]
 8001940:	f422 127c 	bic.w	r2, r2, #4128768	; 0x3f0000
 8001944:	605a      	str	r2, [r3, #4]
 8001946:	685a      	ldr	r2, [r3, #4]
 8001948:	f442 12e8 	orr.w	r2, r2, #1900544	; 0x1d0000
 800194c:	605a      	str	r2, [r3, #4]
 800194e:	681a      	ldr	r2, [r3, #0]
 8001950:	f042 7280 	orr.w	r2, r2, #16777216	; 0x1000000
 8001954:	601a      	str	r2, [r3, #0]
 8001956:	681a      	ldr	r2, [r3, #0]
 8001958:	0192      	lsls	r2, r2, #6
 800195a:	d5fc      	bpl.n	8001956 <SystemInit+0xbe>
 800195c:	685a      	ldr	r2, [r3, #4]
 800195e:	f022 0203 	bic.w	r2, r2, #3
 8001962:	605a      	str	r2, [r3, #4]
 8001964:	685a      	ldr	r2, [r3, #4]
 8001966:	f042 0202 	orr.w	r2, r2, #2
 800196a:	605a      	str	r2, [r3, #4]
 800196c:	685a      	ldr	r2, [r3, #4]
 800196e:	f002 020c 	and.w	r2, r2, #12
 8001972:	2a08      	cmp	r2, #8
 8001974:	d1fa      	bne.n	800196c <SystemInit+0xd4>
 8001976:	e7c7      	b.n	8001908 <SystemInit+0x70>
 8001978:	40021000 	.word	0x40021000
 800197c:	f8ff0000 	.word	0xf8ff0000
 8001980:	e000ed00 	.word	0xe000ed00
 8001984:	40022000 	.word	0x40022000

08001988 <ts_itoa>:
 8001988:	2301      	movs	r3, #1
 800198a:	b570      	push	{r4, r5, r6, lr}
 800198c:	fbb1 f4f3 	udiv	r4, r1, r3
 8001990:	4294      	cmp	r4, r2
 8001992:	d201      	bcs.n	8001998 <ts_itoa+0x10>
 8001994:	b913      	cbnz	r3, 800199c <ts_itoa+0x14>
 8001996:	bd70      	pop	{r4, r5, r6, pc}
 8001998:	4353      	muls	r3, r2
 800199a:	e7f7      	b.n	800198c <ts_itoa+0x4>
 800199c:	fbb1 f4f3 	udiv	r4, r1, r3
 80019a0:	6805      	ldr	r5, [r0, #0]
 80019a2:	2c09      	cmp	r4, #9
 80019a4:	fb03 1114 	mls	r1, r3, r4, r1
 80019a8:	f105 0601 	add.w	r6, r5, #1
 80019ac:	bfcc      	ite	gt
 80019ae:	3437      	addgt	r4, #55	; 0x37
 80019b0:	3430      	addle	r4, #48	; 0x30
 80019b2:	6006      	str	r6, [r0, #0]
 80019b4:	fb93 f3f2 	sdiv	r3, r3, r2
 80019b8:	702c      	strb	r4, [r5, #0]
 80019ba:	e7eb      	b.n	8001994 <ts_itoa+0xc>

080019bc <ts_formatstring>:
 80019bc:	e92d 41f3 	stmdb	sp!, {r0, r1, r4, r5, r6, r7, r8, lr}
 80019c0:	4613      	mov	r3, r2
 80019c2:	460c      	mov	r4, r1
 80019c4:	4606      	mov	r6, r0
 80019c6:	272d      	movs	r7, #45	; 0x2d
 80019c8:	ad02      	add	r5, sp, #8
 80019ca:	f845 0d04 	str.w	r0, [r5, #-4]!
 80019ce:	7822      	ldrb	r2, [r4, #0]
 80019d0:	b932      	cbnz	r2, 80019e0 <ts_formatstring+0x24>
 80019d2:	9b01      	ldr	r3, [sp, #4]
 80019d4:	701a      	strb	r2, [r3, #0]
 80019d6:	9801      	ldr	r0, [sp, #4]
 80019d8:	1b80      	subs	r0, r0, r6
 80019da:	b002      	add	sp, #8
 80019dc:	e8bd 81f0 	ldmia.w	sp!, {r4, r5, r6, r7, r8, pc}
 80019e0:	2a25      	cmp	r2, #37	; 0x25
 80019e2:	d147      	bne.n	8001a74 <ts_formatstring+0xb8>
 80019e4:	7862      	ldrb	r2, [r4, #1]
 80019e6:	2a64      	cmp	r2, #100	; 0x64
 80019e8:	d022      	beq.n	8001a30 <ts_formatstring+0x74>
 80019ea:	d80a      	bhi.n	8001a02 <ts_formatstring+0x46>
 80019ec:	2a58      	cmp	r2, #88	; 0x58
 80019ee:	d013      	beq.n	8001a18 <ts_formatstring+0x5c>
 80019f0:	2a63      	cmp	r2, #99	; 0x63
 80019f2:	d015      	beq.n	8001a20 <ts_formatstring+0x64>
 80019f4:	2a25      	cmp	r2, #37	; 0x25
 80019f6:	d109      	bne.n	8001a0c <ts_formatstring+0x50>
 80019f8:	9901      	ldr	r1, [sp, #4]
 80019fa:	1c48      	adds	r0, r1, #1
 80019fc:	9001      	str	r0, [sp, #4]
 80019fe:	700a      	strb	r2, [r1, #0]
 8001a00:	e004      	b.n	8001a0c <ts_formatstring+0x50>
 8001a02:	2a73      	cmp	r2, #115	; 0x73
 8001a04:	d024      	beq.n	8001a50 <ts_formatstring+0x94>
 8001a06:	d803      	bhi.n	8001a10 <ts_formatstring+0x54>
 8001a08:	2a69      	cmp	r2, #105	; 0x69
 8001a0a:	d011      	beq.n	8001a30 <ts_formatstring+0x74>
 8001a0c:	3402      	adds	r4, #2
 8001a0e:	e7de      	b.n	80019ce <ts_formatstring+0x12>
 8001a10:	2a75      	cmp	r2, #117	; 0x75
 8001a12:	d02a      	beq.n	8001a6a <ts_formatstring+0xae>
 8001a14:	2a78      	cmp	r2, #120	; 0x78
 8001a16:	d1f9      	bne.n	8001a0c <ts_formatstring+0x50>
 8001a18:	f103 0804 	add.w	r8, r3, #4
 8001a1c:	2210      	movs	r2, #16
 8001a1e:	e027      	b.n	8001a70 <ts_formatstring+0xb4>
 8001a20:	9a01      	ldr	r2, [sp, #4]
 8001a22:	3304      	adds	r3, #4
 8001a24:	1c51      	adds	r1, r2, #1
 8001a26:	9101      	str	r1, [sp, #4]
 8001a28:	f853 1c04 	ldr.w	r1, [r3, #-4]
 8001a2c:	7011      	strb	r1, [r2, #0]
 8001a2e:	e7ed      	b.n	8001a0c <ts_formatstring+0x50>
 8001a30:	6819      	ldr	r1, [r3, #0]
 8001a32:	f103 0804 	add.w	r8, r3, #4
 8001a36:	2900      	cmp	r1, #0
 8001a38:	da04      	bge.n	8001a44 <ts_formatstring+0x88>
 8001a3a:	9b01      	ldr	r3, [sp, #4]
 8001a3c:	4249      	negs	r1, r1
 8001a3e:	1c5a      	adds	r2, r3, #1
 8001a40:	9201      	str	r2, [sp, #4]
 8001a42:	701f      	strb	r7, [r3, #0]
 8001a44:	220a      	movs	r2, #10
 8001a46:	4628      	mov	r0, r5
 8001a48:	f7ff ff9e 	bl	8001988 <ts_itoa>
 8001a4c:	4643      	mov	r3, r8
 8001a4e:	e7dd      	b.n	8001a0c <ts_formatstring+0x50>
 8001a50:	1d19      	adds	r1, r3, #4
 8001a52:	681b      	ldr	r3, [r3, #0]
 8001a54:	781a      	ldrb	r2, [r3, #0]
 8001a56:	b90a      	cbnz	r2, 8001a5c <ts_formatstring+0xa0>
 8001a58:	460b      	mov	r3, r1
 8001a5a:	e7d7      	b.n	8001a0c <ts_formatstring+0x50>
 8001a5c:	9a01      	ldr	r2, [sp, #4]
 8001a5e:	1c50      	adds	r0, r2, #1
 8001a60:	9001      	str	r0, [sp, #4]
 8001a62:	f813 0b01 	ldrb.w	r0, [r3], #1
 8001a66:	7010      	strb	r0, [r2, #0]
 8001a68:	e7f4      	b.n	8001a54 <ts_formatstring+0x98>
 8001a6a:	220a      	movs	r2, #10
 8001a6c:	f103 0804 	add.w	r8, r3, #4
 8001a70:	6819      	ldr	r1, [r3, #0]
 8001a72:	e7e8      	b.n	8001a46 <ts_formatstring+0x8a>
 8001a74:	9901      	ldr	r1, [sp, #4]
 8001a76:	3401      	adds	r4, #1
 8001a78:	1c48      	adds	r0, r1, #1
 8001a7a:	9001      	str	r0, [sp, #4]
 8001a7c:	700a      	strb	r2, [r1, #0]
 8001a7e:	e7a6      	b.n	80019ce <ts_formatstring+0x12>

08001a80 <siprintf>:
 8001a80:	b40e      	push	{r1, r2, r3}
 8001a82:	b503      	push	{r0, r1, lr}
 8001a84:	aa03      	add	r2, sp, #12
 8001a86:	f852 1b04 	ldr.w	r1, [r2], #4
 8001a8a:	9201      	str	r2, [sp, #4]
 8001a8c:	f7ff ff96 	bl	80019bc <ts_formatstring>
 8001a90:	b002      	add	sp, #8
 8001a92:	f85d eb04 	ldr.w	lr, [sp], #4
 8001a96:	b003      	add	sp, #12
 8001a98:	4770      	bx	lr
	...

08001a9c <__libc_init_array>:
 8001a9c:	b570      	push	{r4, r5, r6, lr}
 8001a9e:	2500      	movs	r5, #0
 8001aa0:	4e0c      	ldr	r6, [pc, #48]	; (8001ad4 <__libc_init_array+0x38>)
 8001aa2:	4c0d      	ldr	r4, [pc, #52]	; (8001ad8 <__libc_init_array+0x3c>)
 8001aa4:	1ba4      	subs	r4, r4, r6
 8001aa6:	10a4      	asrs	r4, r4, #2
 8001aa8:	42a5      	cmp	r5, r4
 8001aaa:	d109      	bne.n	8001ac0 <__libc_init_array+0x24>
 8001aac:	f000 f81a 	bl	8001ae4 <_init>
 8001ab0:	2500      	movs	r5, #0
 8001ab2:	4e0a      	ldr	r6, [pc, #40]	; (8001adc <__libc_init_array+0x40>)
 8001ab4:	4c0a      	ldr	r4, [pc, #40]	; (8001ae0 <__libc_init_array+0x44>)
 8001ab6:	1ba4      	subs	r4, r4, r6
 8001ab8:	10a4      	asrs	r4, r4, #2
 8001aba:	42a5      	cmp	r5, r4
 8001abc:	d105      	bne.n	8001aca <__libc_init_array+0x2e>
 8001abe:	bd70      	pop	{r4, r5, r6, pc}
 8001ac0:	f856 3025 	ldr.w	r3, [r6, r5, lsl #2]
 8001ac4:	4798      	blx	r3
 8001ac6:	3501      	adds	r5, #1
 8001ac8:	e7ee      	b.n	8001aa8 <__libc_init_array+0xc>
 8001aca:	f856 3025 	ldr.w	r3, [r6, r5, lsl #2]
 8001ace:	4798      	blx	r3
 8001ad0:	3501      	adds	r5, #1
 8001ad2:	e7f2      	b.n	8001aba <__libc_init_array+0x1e>
 8001ad4:	08002360 	.word	0x08002360
 8001ad8:	08002360 	.word	0x08002360
 8001adc:	08002360 	.word	0x08002360
 8001ae0:	08002364 	.word	0x08002364

08001ae4 <_init>:
 8001ae4:	b5f8      	push	{r3, r4, r5, r6, r7, lr}
 8001ae6:	bf00      	nop
 8001ae8:	bcf8      	pop	{r3, r4, r5, r6, r7}
 8001aea:	bc08      	pop	{r3}
 8001aec:	469e      	mov	lr, r3
 8001aee:	4770      	bx	lr

08001af0 <_fini>:
 8001af0:	b5f8      	push	{r3, r4, r5, r6, r7, lr}
 8001af2:	bf00      	nop
 8001af4:	bcf8      	pop	{r3, r4, r5, r6, r7}
 8001af6:	bc08      	pop	{r3}
 8001af8:	469e      	mov	lr, r3
 8001afa:	4770      	bx	lr
