
Thermopress.elf:     file format elf32-littlearm

Sections:
Idx Name          Size      VMA       LMA       File off  Algn
  0 .isr_vector   0000010c  08000000  08000000  00010000  2**0
                  CONTENTS, ALLOC, LOAD, READONLY, DATA
  1 .text         000001f8  0800010c  0800010c  0001010c  2**2
                  CONTENTS, ALLOC, LOAD, READONLY, CODE
  2 .rodata       00000000  08000304  0800030c  0001030c  2**0
                  CONTENTS, ALLOC, LOAD, DATA
  3 .init_array   00000004  08000304  08000304  00010304  2**2
                  CONTENTS, ALLOC, LOAD, DATA
  4 .fini_array   00000004  08000308  08000308  00010308  2**2
                  CONTENTS, ALLOC, LOAD, DATA
  5 .data         00000000  20000000  20000000  0001030c  2**0
                  CONTENTS, ALLOC, LOAD, DATA
  6 .bss          0000001c  20000000  0800030c  00020000  2**2
                  ALLOC
  7 ._user_heap_stack 00000100  2000001c  0800030c  0002001c  2**0
                  ALLOC
  8 .ARM.attributes 00000029  00000000  00000000  0001030c  2**0
                  CONTENTS, READONLY
  9 .comment      0000007c  00000000  00000000  00010335  2**0
                  CONTENTS, READONLY
 10 .debug_frame  0000002c  00000000  00000000  000103b4  2**2
                  CONTENTS, READONLY, DEBUGGING
 11 .stabstr      0000003f  00000000  00000000  000103e0  2**0
                  CONTENTS, READONLY, DEBUGGING

Disassembly of section .text:

0800010c <__do_global_dtors_aux>:
 800010c:	b510      	push	{r4, lr}
 800010e:	4c05      	ldr	r4, [pc, #20]	; (8000124 <__do_global_dtors_aux+0x18>)
 8000110:	7823      	ldrb	r3, [r4, #0]
 8000112:	b933      	cbnz	r3, 8000122 <__do_global_dtors_aux+0x16>
 8000114:	4b04      	ldr	r3, [pc, #16]	; (8000128 <__do_global_dtors_aux+0x1c>)
 8000116:	b113      	cbz	r3, 800011e <__do_global_dtors_aux+0x12>
 8000118:	4804      	ldr	r0, [pc, #16]	; (800012c <__do_global_dtors_aux+0x20>)
 800011a:	f3af 8000 	nop.w
 800011e:	2301      	movs	r3, #1
 8000120:	7023      	strb	r3, [r4, #0]
 8000122:	bd10      	pop	{r4, pc}
 8000124:	20000000 	.word	0x20000000
 8000128:	00000000 	.word	0x00000000
 800012c:	080002ec 	.word	0x080002ec

08000130 <frame_dummy>:
 8000130:	b508      	push	{r3, lr}
 8000132:	4b03      	ldr	r3, [pc, #12]	; (8000140 <frame_dummy+0x10>)
 8000134:	b11b      	cbz	r3, 800013e <frame_dummy+0xe>
 8000136:	4903      	ldr	r1, [pc, #12]	; (8000144 <frame_dummy+0x14>)
 8000138:	4803      	ldr	r0, [pc, #12]	; (8000148 <frame_dummy+0x18>)
 800013a:	f3af 8000 	nop.w
 800013e:	bd08      	pop	{r3, pc}
 8000140:	00000000 	.word	0x00000000
 8000144:	20000004 	.word	0x20000004
 8000148:	080002ec 	.word	0x080002ec

0800014c <main>:
 800014c:	e7fe      	b.n	800014c <main>
	...

08000150 <Reset_Handler>:
 8000150:	f8df d034 	ldr.w	sp, [pc, #52]	; 8000188 <LoopFillZerobss+0x14>
 8000154:	2100      	movs	r1, #0
 8000156:	e003      	b.n	8000160 <LoopCopyDataInit>

08000158 <CopyDataInit>:
 8000158:	4b0c      	ldr	r3, [pc, #48]	; (800018c <LoopFillZerobss+0x18>)
 800015a:	585b      	ldr	r3, [r3, r1]
 800015c:	5043      	str	r3, [r0, r1]
 800015e:	3104      	adds	r1, #4

08000160 <LoopCopyDataInit>:
 8000160:	480b      	ldr	r0, [pc, #44]	; (8000190 <LoopFillZerobss+0x1c>)
 8000162:	4b0c      	ldr	r3, [pc, #48]	; (8000194 <LoopFillZerobss+0x20>)
 8000164:	1842      	adds	r2, r0, r1
 8000166:	429a      	cmp	r2, r3
 8000168:	d3f6      	bcc.n	8000158 <CopyDataInit>
 800016a:	4a0b      	ldr	r2, [pc, #44]	; (8000198 <LoopFillZerobss+0x24>)
 800016c:	e002      	b.n	8000174 <LoopFillZerobss>

0800016e <FillZerobss>:
 800016e:	2300      	movs	r3, #0
 8000170:	f842 3b04 	str.w	r3, [r2], #4

08000174 <LoopFillZerobss>:
 8000174:	4b09      	ldr	r3, [pc, #36]	; (800019c <LoopFillZerobss+0x28>)
 8000176:	429a      	cmp	r2, r3
 8000178:	d3f9      	bcc.n	800016e <FillZerobss>
 800017a:	f000 f81b 	bl	80001b4 <SystemInit>
 800017e:	f000 f891 	bl	80002a4 <__libc_init_array>
 8000182:	f7ff ffe3 	bl	800014c <main>
 8000186:	4770      	bx	lr
 8000188:	20005000 	.word	0x20005000
 800018c:	0800030c 	.word	0x0800030c
 8000190:	20000000 	.word	0x20000000
 8000194:	20000000 	.word	0x20000000
 8000198:	20000000 	.word	0x20000000
 800019c:	2000001c 	.word	0x2000001c

080001a0 <ADC1_2_IRQHandler>:
 80001a0:	e7fe      	b.n	80001a0 <ADC1_2_IRQHandler>

080001a2 <NMI_Handler>:
 80001a2:	4770      	bx	lr

080001a4 <HardFault_Handler>:
 80001a4:	e7fe      	b.n	80001a4 <HardFault_Handler>

080001a6 <MemManage_Handler>:
 80001a6:	e7fe      	b.n	80001a6 <MemManage_Handler>

080001a8 <BusFault_Handler>:
 80001a8:	e7fe      	b.n	80001a8 <BusFault_Handler>

080001aa <UsageFault_Handler>:
 80001aa:	e7fe      	b.n	80001aa <UsageFault_Handler>

080001ac <SVC_Handler>:
 80001ac:	4770      	bx	lr

080001ae <DebugMon_Handler>:
 80001ae:	4770      	bx	lr

080001b0 <PendSV_Handler>:
 80001b0:	4770      	bx	lr

080001b2 <SysTick_Handler>:
 80001b2:	4770      	bx	lr

080001b4 <SystemInit>:
 80001b4:	4b37      	ldr	r3, [pc, #220]	; (8000294 <SystemInit+0xe0>)
 80001b6:	b082      	sub	sp, #8
 80001b8:	681a      	ldr	r2, [r3, #0]
 80001ba:	f042 0201 	orr.w	r2, r2, #1
 80001be:	601a      	str	r2, [r3, #0]
 80001c0:	6859      	ldr	r1, [r3, #4]
 80001c2:	4a35      	ldr	r2, [pc, #212]	; (8000298 <SystemInit+0xe4>)
 80001c4:	400a      	ands	r2, r1
 80001c6:	605a      	str	r2, [r3, #4]
 80001c8:	681a      	ldr	r2, [r3, #0]
 80001ca:	f022 7284 	bic.w	r2, r2, #17301504	; 0x1080000
 80001ce:	f422 3280 	bic.w	r2, r2, #65536	; 0x10000
 80001d2:	601a      	str	r2, [r3, #0]
 80001d4:	681a      	ldr	r2, [r3, #0]
 80001d6:	f422 2280 	bic.w	r2, r2, #262144	; 0x40000
 80001da:	601a      	str	r2, [r3, #0]
 80001dc:	685a      	ldr	r2, [r3, #4]
 80001de:	f422 02fe 	bic.w	r2, r2, #8323072	; 0x7f0000
 80001e2:	605a      	str	r2, [r3, #4]
 80001e4:	f44f 021f 	mov.w	r2, #10420224	; 0x9f0000
 80001e8:	609a      	str	r2, [r3, #8]
 80001ea:	2200      	movs	r2, #0
 80001ec:	9200      	str	r2, [sp, #0]
 80001ee:	9201      	str	r2, [sp, #4]
 80001f0:	681a      	ldr	r2, [r3, #0]
 80001f2:	f442 3280 	orr.w	r2, r2, #65536	; 0x10000
 80001f6:	601a      	str	r2, [r3, #0]
 80001f8:	681a      	ldr	r2, [r3, #0]
 80001fa:	f402 3200 	and.w	r2, r2, #131072	; 0x20000
 80001fe:	9201      	str	r2, [sp, #4]
 8000200:	9a00      	ldr	r2, [sp, #0]
 8000202:	3201      	adds	r2, #1
 8000204:	9200      	str	r2, [sp, #0]
 8000206:	9a01      	ldr	r2, [sp, #4]
 8000208:	b91a      	cbnz	r2, 8000212 <SystemInit+0x5e>
 800020a:	9a00      	ldr	r2, [sp, #0]
 800020c:	f5b2 6fa0 	cmp.w	r2, #1280	; 0x500
 8000210:	d1f2      	bne.n	80001f8 <SystemInit+0x44>
 8000212:	681a      	ldr	r2, [r3, #0]
 8000214:	f412 3200 	ands.w	r2, r2, #131072	; 0x20000
 8000218:	bf18      	it	ne
 800021a:	2201      	movne	r2, #1
 800021c:	9201      	str	r2, [sp, #4]
 800021e:	9a01      	ldr	r2, [sp, #4]
 8000220:	2a01      	cmp	r2, #1
 8000222:	d005      	beq.n	8000230 <SystemInit+0x7c>
 8000224:	f04f 6200 	mov.w	r2, #134217728	; 0x8000000
 8000228:	4b1c      	ldr	r3, [pc, #112]	; (800029c <SystemInit+0xe8>)
 800022a:	609a      	str	r2, [r3, #8]
 800022c:	b002      	add	sp, #8
 800022e:	4770      	bx	lr
 8000230:	4a1b      	ldr	r2, [pc, #108]	; (80002a0 <SystemInit+0xec>)
 8000232:	6811      	ldr	r1, [r2, #0]
 8000234:	f041 0110 	orr.w	r1, r1, #16
 8000238:	6011      	str	r1, [r2, #0]
 800023a:	6811      	ldr	r1, [r2, #0]
 800023c:	f021 0103 	bic.w	r1, r1, #3
 8000240:	6011      	str	r1, [r2, #0]
 8000242:	6811      	ldr	r1, [r2, #0]
 8000244:	f041 0102 	orr.w	r1, r1, #2
 8000248:	6011      	str	r1, [r2, #0]
 800024a:	685a      	ldr	r2, [r3, #4]
 800024c:	605a      	str	r2, [r3, #4]
 800024e:	685a      	ldr	r2, [r3, #4]
 8000250:	605a      	str	r2, [r3, #4]
 8000252:	685a      	ldr	r2, [r3, #4]
 8000254:	f442 6280 	orr.w	r2, r2, #1024	; 0x400
 8000258:	605a      	str	r2, [r3, #4]
 800025a:	685a      	ldr	r2, [r3, #4]
 800025c:	f422 127c 	bic.w	r2, r2, #4128768	; 0x3f0000
 8000260:	605a      	str	r2, [r3, #4]
 8000262:	685a      	ldr	r2, [r3, #4]
 8000264:	f442 12e8 	orr.w	r2, r2, #1900544	; 0x1d0000
 8000268:	605a      	str	r2, [r3, #4]
 800026a:	681a      	ldr	r2, [r3, #0]
 800026c:	f042 7280 	orr.w	r2, r2, #16777216	; 0x1000000
 8000270:	601a      	str	r2, [r3, #0]
 8000272:	681a      	ldr	r2, [r3, #0]
 8000274:	0192      	lsls	r2, r2, #6
 8000276:	d5fc      	bpl.n	8000272 <SystemInit+0xbe>
 8000278:	685a      	ldr	r2, [r3, #4]
 800027a:	f022 0203 	bic.w	r2, r2, #3
 800027e:	605a      	str	r2, [r3, #4]
 8000280:	685a      	ldr	r2, [r3, #4]
 8000282:	f042 0202 	orr.w	r2, r2, #2
 8000286:	605a      	str	r2, [r3, #4]
 8000288:	685a      	ldr	r2, [r3, #4]
 800028a:	f002 020c 	and.w	r2, r2, #12
 800028e:	2a08      	cmp	r2, #8
 8000290:	d1fa      	bne.n	8000288 <SystemInit+0xd4>
 8000292:	e7c7      	b.n	8000224 <SystemInit+0x70>
 8000294:	40021000 	.word	0x40021000
 8000298:	f8ff0000 	.word	0xf8ff0000
 800029c:	e000ed00 	.word	0xe000ed00
 80002a0:	40022000 	.word	0x40022000

080002a4 <__libc_init_array>:
 80002a4:	b570      	push	{r4, r5, r6, lr}
 80002a6:	2500      	movs	r5, #0
 80002a8:	4e0c      	ldr	r6, [pc, #48]	; (80002dc <__libc_init_array+0x38>)
 80002aa:	4c0d      	ldr	r4, [pc, #52]	; (80002e0 <__libc_init_array+0x3c>)
 80002ac:	1ba4      	subs	r4, r4, r6
 80002ae:	10a4      	asrs	r4, r4, #2
 80002b0:	42a5      	cmp	r5, r4
 80002b2:	d109      	bne.n	80002c8 <__libc_init_array+0x24>
 80002b4:	f000 f81a 	bl	80002ec <_init>
 80002b8:	2500      	movs	r5, #0
 80002ba:	4e0a      	ldr	r6, [pc, #40]	; (80002e4 <__libc_init_array+0x40>)
 80002bc:	4c0a      	ldr	r4, [pc, #40]	; (80002e8 <__libc_init_array+0x44>)
 80002be:	1ba4      	subs	r4, r4, r6
 80002c0:	10a4      	asrs	r4, r4, #2
 80002c2:	42a5      	cmp	r5, r4
 80002c4:	d105      	bne.n	80002d2 <__libc_init_array+0x2e>
 80002c6:	bd70      	pop	{r4, r5, r6, pc}
 80002c8:	f856 3025 	ldr.w	r3, [r6, r5, lsl #2]
 80002cc:	4798      	blx	r3
 80002ce:	3501      	adds	r5, #1
 80002d0:	e7ee      	b.n	80002b0 <__libc_init_array+0xc>
 80002d2:	f856 3025 	ldr.w	r3, [r6, r5, lsl #2]
 80002d6:	4798      	blx	r3
 80002d8:	3501      	adds	r5, #1
 80002da:	e7f2      	b.n	80002c2 <__libc_init_array+0x1e>
 80002dc:	08000304 	.word	0x08000304
 80002e0:	08000304 	.word	0x08000304
 80002e4:	08000304 	.word	0x08000304
 80002e8:	08000308 	.word	0x08000308

080002ec <_init>:
 80002ec:	b5f8      	push	{r3, r4, r5, r6, r7, lr}
 80002ee:	bf00      	nop
 80002f0:	bcf8      	pop	{r3, r4, r5, r6, r7}
 80002f2:	bc08      	pop	{r3}
 80002f4:	469e      	mov	lr, r3
 80002f6:	4770      	bx	lr

080002f8 <_fini>:
 80002f8:	b5f8      	push	{r3, r4, r5, r6, r7, lr}
 80002fa:	bf00      	nop
 80002fc:	bcf8      	pop	{r3, r4, r5, r6, r7}
 80002fe:	bc08      	pop	{r3}
 8000300:	469e      	mov	lr, r3
 8000302:	4770      	bx	lr
